(dp1
S'output'
p2
S"<type 'exceptions.KeyError'> 'hash'"
p3
sS'layer'
p4
S'/home/cc5985/web2py/web2py/applications/app1/controllers/api.py'
p5
sS'code'
p6
S'<code object <module> at 0x7f94942f8a30, file "/home/cc5985/web2py/web2py/applications/app1/controllers/api.py", line 1>'
p7
sS'snapshot'
p8
(dp9
S'exception'
p10
(dp11
S'__getslice__'
p12
S"<method-wrapper '__getslice__' of exceptions.KeyError object>"
p13
sS'__str__'
p14
S"<method-wrapper '__str__' of exceptions.KeyError object>"
p15
sS'__reduce__'
p16
S'<built-in method __reduce__ of exceptions.KeyError object>'
p17
sS'__dict__'
p18
S'{}'
p19
sS'message'
p20
S"'hash'"
p21
sS'__sizeof__'
p22
S'<built-in method __sizeof__ of exceptions.KeyError object>'
p23
sS'__init__'
p24
S"<method-wrapper '__init__' of exceptions.KeyError object>"
p25
sS'__setattr__'
p26
S"<method-wrapper '__setattr__' of exceptions.KeyError object>"
p27
sS'__reduce_ex__'
p28
S'<built-in method __reduce_ex__ of exceptions.KeyError object>'
p29
sS'__new__'
p30
S'<built-in method __new__ of type object>'
p31
sS'__format__'
p32
S'<built-in method __format__ of exceptions.KeyError object>'
p33
sS'__class__'
p34
S"<type 'exceptions.KeyError'>"
p35
sS'__doc__'
p36
S"'Mapping key not found.'"
p37
sS'__getitem__'
p38
S"<method-wrapper '__getitem__' of exceptions.KeyError object>"
p39
sS'__setstate__'
p40
S'<built-in method __setstate__ of exceptions.KeyError object>'
p41
sS'__getattribute__'
p42
S"<method-wrapper '__getattribute__' of exceptions.KeyError object>"
p43
sS'args'
p44
S"('hash',)"
p45
sS'__subclasshook__'
p46
S'<built-in method __subclasshook__ of type object>'
p47
sS'__unicode__'
p48
S'<built-in method __unicode__ of exceptions.KeyError object>'
p49
sS'__delattr__'
p50
S"<method-wrapper '__delattr__' of exceptions.KeyError object>"
p51
sS'__repr__'
p52
S"<method-wrapper '__repr__' of exceptions.KeyError object>"
p53
sS'__hash__'
p54
S"<method-wrapper '__hash__' of exceptions.KeyError object>"
p55
ssS'evalue'
p56
S"'hash'"
p57
sS'request'
p58
cgluon.html
XML_unpickle
p59
(S's=v\x00\x00<div><table><tr><td style="font-weight:bold;vertical-align:top;">ajax</td><td style="vertical-align:top;">:</td><td><div>False</div></td></tr><tr><td style="font-weight:bold;vertical-align:top;">application</td><td style="vertical-align:top;">:</td><td><div>app1</div></td></tr><tr><td style="font-weight:bold;vertical-align:top;">args</td><td style="vertical-align:top;">:</td><td><div><table><tr><td><div>run</div></td></tr><tr><td><div>transactions</div></td></tr></table></div></td></tr><tr><td style="font-weight:bold;vertical-align:top;">cid</td><td style="vertical-align:top;">:</td><td><div>None</div></td></tr><tr><td style="font-weight:bold;vertical-align:top;">client</td><td style="vertical-align:top;">:</td><td><div>127.0.0.1</div></td></tr><tr><td style="font-weight:bold;vertical-align:top;">controller</td><td style="vertical-align:top;">:</td><td><div>api</div></td></tr><tr><td style="font-weight:bold;vertical-align:top;">cookies</td><td style="vertical-align:top;">:</td><td><div><table><tr><td style="font-weight:bold;vertical-align:top;">PGADMIN_LANGUAGE</td><td style="vertical-align:top;">:</td><td><div>en<table><tr><td style="font-weight:bold;vertical-align:top;">comment</td><td style="vertical-align:top;">:</td><td><div></div></td></tr><tr><td style="font-weight:bold;vertical-align:top;">domain</td><td style="vertical-align:top;">:</td><td><div></div></td></tr><tr><td style="font-weight:bold;vertical-align:top;">expires</td><td style="vertical-align:top;">:</td><td><div></div></td></tr><tr><td style="font-weight:bold;vertical-align:top;">httponly</td><td style="vertical-align:top;">:</td><td><div></div></td></tr><tr><td style="font-weight:bold;vertical-align:top;">max-age</td><td style="vertical-align:top;">:</td><td><div></div></td></tr><tr><td style="font-weight:bold;vertical-align:top;">path</td><td style="vertical-align:top;">:</td><td><div></div></td></tr><tr><td style="font-weight:bold;vertical-align:top;">secure</td><td style="vertical-align:top;">:</td><td><div></div></td></tr><tr><td style="font-weight:bold;vertical-align:top;">version</td><td style="vertical-align:top;">:</td><td><div></div></td></tr></table></div></td></tr><tr><td style="font-weight:bold;vertical-align:top;">adminLanguage</td><td style="vertical-align:top;">:</td><td><div>zh<table><tr><td style="font-weight:bold;vertical-align:top;">comment</td><td style="vertical-align:top;">:</td><td><div></div></td></tr><tr><td style="font-weight:bold;vertical-align:top;">domain</td><td style="vertical-align:top;">:</td><td><div></div></td></tr><tr><td style="font-weight:bold;vertical-align:top;">expires</td><td style="vertical-align:top;">:</td><td><div></div></td></tr><tr><td style="font-weight:bold;vertical-align:top;">httponly</td><td style="vertical-align:top;">:</td><td><div></div></td></tr><tr><td style="font-weight:bold;vertical-align:top;">max-age</td><td style="vertical-align:top;">:</td><td><div></div></td></tr><tr><td style="font-weight:bold;vertical-align:top;">path</td><td style="vertical-align:top;">:</td><td><div></div></td></tr><tr><td style="font-weight:bold;vertical-align:top;">secure</td><td style="vertical-align:top;">:</td><td><div></div></td></tr><tr><td style="font-weight:bold;vertical-align:top;">version</td><td style="vertical-align:top;">:</td><td><div></div></td></tr></table></div></td></tr><tr><td style="font-weight:bold;vertical-align:top;">pga4_session</td><td style="vertical-align:top;">:</td><td><div>b17f8d6f-4f60-4c35-97a8-4231024d8610!NMc2rNqZ3v24RlWDyZ08z0LZ+iY=<table><tr><td style="font-weight:bold;vertical-align:top;">comment</td><td style="vertical-align:top;">:</td><td><div></div></td></tr><tr><td style="font-weight:bold;vertical-align:top;">domain</td><td style="vertical-align:top;">:</td><td><div></div></td></tr><tr><td style="font-weight:bold;vertical-align:top;">expires</td><td style="vertical-align:top;">:</td><td><div></div></td></tr><tr><td style="font-weight:bold;vertical-align:top;">httponly</td><td style="vertical-align:top;">:</td><td><div></div></td></tr><tr><td style="font-weight:bold;vertical-align:top;">max-age</td><td style="vertical-align:top;">:</td><td><div></div></td></tr><tr><td style="font-weight:bold;vertical-align:top;">path</td><td style="vertical-align:top;">:</td><td><div></div></td></tr><tr><td style="font-weight:bold;vertical-align:top;">secure</td><td style="vertical-align:top;">:</td><td><div></div></td></tr><tr><td style="font-weight:bold;vertical-align:top;">version</td><td style="vertical-align:top;">:</td><td><div></div></td></tr></table></div></td></tr><tr><td style="font-weight:bold;vertical-align:top;">session_id_admin</td><td style="vertical-align:top;">:</td><td><div>127.0.0.1-5e71cd66-3b7d-4c65-adc7-8ed76961285c<table><tr><td style="font-weight:bold;vertical-align:top;">comment</td><td style="vertical-align:top;">:</td><td><div></div></td></tr><tr><td style="font-weight:bold;vertical-align:top;">domain</td><td style="vertical-align:top;">:</td><td><div></div></td></tr><tr><td style="font-weight:bold;vertical-align:top;">expires</td><td style="vertical-align:top;">:</td><td><div></div></td></tr><tr><td style="font-weight:bold;vertical-align:top;">httponly</td><td style="vertical-align:top;">:</td><td><div></div></td></tr><tr><td style="font-weight:bold;vertical-align:top;">max-age</td><td style="vertical-align:top;">:</td><td><div></div></td></tr><tr><td style="font-weight:bold;vertical-align:top;">path</td><td style="vertical-align:top;">:</td><td><div></div></td></tr><tr><td style="font-weight:bold;vertical-align:top;">secure</td><td style="vertical-align:top;">:</td><td><div></div></td></tr><tr><td style="font-weight:bold;vertical-align:top;">version</td><td style="vertical-align:top;">:</td><td><div></div></td></tr></table></div></td></tr><tr><td style="font-weight:bold;vertical-align:top;">session_id_app1</td><td style="vertical-align:top;">:</td><td><div>127.0.0.1-5c1ed551-d0e0-4382-9b01-bf4efc48a769<table><tr><td style="font-weight:bold;vertical-align:top;">comment</td><td style="vertical-align:top;">:</td><td><div></div></td></tr><tr><td style="font-weight:bold;vertical-align:top;">domain</td><td style="vertical-align:top;">:</td><td><div></div></td></tr><tr><td style="font-weight:bold;vertical-align:top;">expires</td><td style="vertical-align:top;">:</td><td><div></div></td></tr><tr><td style="font-weight:bold;vertical-align:top;">httponly</td><td style="vertical-align:top;">:</td><td><div></div></td></tr><tr><td style="font-weight:bold;vertical-align:top;">max-age</td><td style="vertical-align:top;">:</td><td><div></div></td></tr><tr><td style="font-weight:bold;vertical-align:top;">path</td><td style="vertical-align:top;">:</td><td><div></div></td></tr><tr><td style="font-weight:bold;vertical-align:top;">secure</td><td style="vertical-align:top;">:</td><td><div></div></td></tr><tr><td style="font-weight:bold;vertical-align:top;">version</td><td style="vertical-align:top;">:</td><td><div></div></td></tr></table></div></td></tr><tr><td style="font-weight:bold;vertical-align:top;">session_id_hello</td><td style="vertical-align:top;">:</td><td><div>127.0.0.1-c670ab94-0430-4259-ad19-307c971103d5<table><tr><td style="font-weight:bold;vertical-align:top;">comment</td><td style="vertical-align:top;">:</td><td><div></div></td></tr><tr><td style="font-weight:bold;vertical-align:top;">domain</td><td style="vertical-align:top;">:</td><td><div></div></td></tr><tr><td style="font-weight:bold;vertical-align:top;">expires</td><td style="vertical-align:top;">:</td><td><div></div></td></tr><tr><td style="font-weight:bold;vertical-align:top;">httponly</td><td style="vertical-align:top;">:</td><td><div></div></td></tr><tr><td style="font-weight:bold;vertical-align:top;">max-age</td><td style="vertical-align:top;">:</td><td><div></div></td></tr><tr><td style="font-weight:bold;vertical-align:top;">path</td><td style="vertical-align:top;">:</td><td><div></div></td></tr><tr><td style="font-weight:bold;vertical-align:top;">secure</td><td style="vertical-align:top;">:</td><td><div></div></td></tr><tr><td style="font-weight:bold;vertical-align:top;">version</td><td style="vertical-align:top;">:</td><td><div></div></td></tr></table></div></td></tr><tr><td style="font-weight:bold;vertical-align:top;">session_id_images</td><td style="vertical-align:top;">:</td><td><div>127.0.0.1-96a1c6e9-4f42-40bf-8e2a-56582904dcad<table><tr><td style="font-weight:bold;vertical-align:top;">comment</td><td style="vertical-align:top;">:</td><td><div></div></td></tr><tr><td style="font-weight:bold;vertical-align:top;">domain</td><td style="vertical-align:top;">:</td><td><div></div></td></tr><tr><td style="font-weight:bold;vertical-align:top;">expires</td><td style="vertical-align:top;">:</td><td><div></div></td></tr><tr><td style="font-weight:bold;vertical-align:top;">httponly</td><td style="vertical-align:top;">:</td><td><div></div></td></tr><tr><td style="font-weight:bold;vertical-align:top;">max-age</td><td style="vertical-align:top;">:</td><td><div></div></td></tr><tr><td style="font-weight:bold;vertical-align:top;">path</td><td style="vertical-align:top;">:</td><td><div></div></td></tr><tr><td style="font-weight:bold;vertical-align:top;">secure</td><td style="vertical-align:top;">:</td><td><div></div></td></tr><tr><td style="font-weight:bold;vertical-align:top;">version</td><td style="vertical-align:top;">:</td><td><div></div></td></tr></table></div></td></tr><tr><td style="font-weight:bold;vertical-align:top;">session_id_welcome</td><td style="vertical-align:top;">:</td><td><div>127.0.0.1-a2d17cbf-7782-4534-9632-440cabc5e777<table><tr><td style="font-weight:bold;vertical-align:top;">comment</td><td style="vertical-align:top;">:</td><td><div></div></td></tr><tr><td style="font-weight:bold;vertical-align:top;">domain</td><td style="vertical-align:top;">:</td><td><div></div></td></tr><tr><td style="font-weight:bold;vertical-align:top;">expires</td><td style="vertical-align:top;">:</td><td><div></div></td></tr><tr><td style="font-weight:bold;vertical-align:top;">httponly</td><td style="vertical-align:top;">:</td><td><div></div></td></tr><tr><td style="font-weight:bold;vertical-align:top;">max-age</td><td style="vertical-align:top;">:</td><td><div></div></td></tr><tr><td style="font-weight:bold;vertical-align:top;">path</td><td style="vertical-align:top;">:</td><td><div></div></td></tr><tr><td style="font-weight:bold;vertical-align:top;">secure</td><td style="vertical-align:top;">:</td><td><div></div></td></tr><tr><td style="font-weight:bold;vertical-align:top;">version</td><td style="vertical-align:top;">:</td><td><div></div></td></tr></table></div></td></tr></table></div></td></tr><tr><td style="font-weight:bold;vertical-align:top;">env</td><td style="vertical-align:top;">:</td><td><div><table><tr><td style="font-weight:bold;vertical-align:top;">HTTP_ACCEPT</td><td style="vertical-align:top;">:</td><td><div>text/html,application/xhtml+xml,application/xml;q=0.9,image/webp,image/apng,*/*;q=0.8</div></td></tr><tr><td style="font-weight:bold;vertical-align:top;">HTTP_ACCEPT_ENCODING</td><td style="vertical-align:top;">:</td><td><div>gzip, deflate, br</div></td></tr><tr><td style="font-weight:bold;vertical-align:top;">HTTP_ACCEPT_LANGUAGE</td><td style="vertical-align:top;">:</td><td><div>en-US,en;q=0.9</div></td></tr><tr><td style="font-weight:bold;vertical-align:top;">HTTP_CACHE_CONTROL</td><td style="vertical-align:top;">:</td><td><div>max-age=0</div></td></tr><tr><td style="font-weight:bold;vertical-align:top;">HTTP_CONNECTION</td><td style="vertical-align:top;">:</td><td><div>keep-alive</div></td></tr><tr><td style="font-weight:bold;vertical-align:top;">HTTP_COOKIE</td><td style="vertical-align:top;">:</td><td><div>session_id_admin=127.0.0.1-5e71cd66-3b7d-4c65-adc7-8ed76961285c; adminLanguage=zh; session_id_hello=127.0.0.1-c670ab94-0430-4259-ad19-307c971103d5; session_id_images=127.0.0.1-96a1c6e9-4f42-40bf-8e2a-56582904dcad; session_id_welcome=127.0.0.1-a2d17cbf-7782-4534-9632-440cabc5e777; pga4_session=b17f8d6f-4f60-4c35-97a8-4231024d8610!NMc2rNqZ3v24RlWDyZ08z0LZ+iY=; PGADMIN_LANGUAGE=en; session_id_app1=127.0.0.1-5c1ed551-d0e0-4382-9b01-bf4efc48a769</div></td></tr><tr><td style="font-weight:bold;vertical-align:top;">HTTP_HOST</td><td style="vertical-align:top;">:</td><td><div>127.0.0.1:8000</div></td></tr><tr><td style="font-weight:bold;vertical-align:top;">HTTP_UPGRADE_INSECURE_REQUESTS</td><td style="vertical-align:top;">:</td><td><div>1</div></td></tr><tr><td style="font-weight:bold;vertical-align:top;">HTTP_USER_AGENT</td><td style="vertical-align:top;">:</td><td><div>Mozilla/5.0 (X11; Linux x86_64) AppleWebKit/537.36 (KHTML, like Gecko) Chrome/64.0.3282.140 Safari/537.36</div></td></tr><tr><td style="font-weight:bold;vertical-align:top;">PATH_INFO</td><td style="vertical-align:top;">:</td><td><div>/app1/api/call/run/transactions</div></td></tr><tr><td style="font-weight:bold;vertical-align:top;">QUERY_STRING</td><td style="vertical-align:top;">:</td><td><div>id=GDJHGNGELXCNMIW6PRGP4E5VDG22TCVRCJ45U4X2VD6SYNJ57EJEZXY5</div></td></tr><tr><td style="font-weight:bold;vertical-align:top;">REMOTE_ADDR</td><td style="vertical-align:top;">:</td><td><div>127.0.0.1</div></td></tr><tr><td style="font-weight:bold;vertical-align:top;">REMOTE_PORT</td><td style="vertical-align:top;">:</td><td><div>33118</div></td></tr><tr><td style="font-weight:bold;vertical-align:top;">REQUEST_METHOD</td><td style="vertical-align:top;">:</td><td><div>GET</div></td></tr><tr><td style="font-weight:bold;vertical-align:top;">SCRIPT_NAME</td><td style="vertical-align:top;">:</td><td><div></div></td></tr><tr><td style="font-weight:bold;vertical-align:top;">SERVER_NAME</td><td style="vertical-align:top;">:</td><td><div>ubuntu</div></td></tr><tr><td style="font-weight:bold;vertical-align:top;">SERVER_PORT</td><td style="vertical-align:top;">:</td><td><div>8000</div></td></tr><tr><td style="font-weight:bold;vertical-align:top;">SERVER_PROTOCOL</td><td style="vertical-align:top;">:</td><td><div>HTTP/1.1</div></td></tr><tr><td style="font-weight:bold;vertical-align:top;">SERVER_SOFTWARE</td><td style="vertical-align:top;">:</td><td><div>Rocket 1.2.6</div></td></tr><tr><td style="font-weight:bold;vertical-align:top;">app_folders</td><td style="vertical-align:top;">:</td><td><div>set([&#x27;/home/cc5985/web2py/web2py/applications/welcome/&#x27;, &#x27;/home/cc5985/web2py/web2py/applications/app1/&#x27;])</div></td></tr><tr><td style="font-weight:bold;vertical-align:top;">applications_parent</td><td style="vertical-align:top;">:</td><td><div>/home/cc5985/web2py/web2py</div></td></tr><tr><td style="font-weight:bold;vertical-align:top;">cmd_args</td><td style="vertical-align:top;">:</td><td><div><table></table></div></td></tr><tr><td style="font-weight:bold;vertical-align:top;">cmd_options</td><td style="vertical-align:top;">:</td><td><div>&lt;Values at 0x7f9497c55f38: {&#x27;verbose&#x27;: False, &#x27;ip&#x27;: &#x27;127.0.0.1&#x27;, &#x27;debuglevel&#x27;: 30, &#x27;with_scheduler&#x27;: False, &#x27;shutdown_timeout&#x27;: 5, &#x27;taskbar&#x27;: False, &#x27;with_coverage&#x27;: False, &#x27;pid_filename&#x27;: &#x27;httpserver.pid&#x27;, &#x27;maxthreads&#x27;: None, &#x27;softcron&#x27;: False, &#x27;server_name&#x27;: &#x27;ubuntu&#x27;, &#x27;bpython&#x27;: False, &#x27;nogui&#x27;: False, &#x27;port&#x27;: 8000, &#x27;print_errors&#x27;: False, &#x27;extcron&#x27;: False, &#x27;runcron&#x27;: False, &#x27;run_system_tests&#x27;: False, &#x27;test&#x27;: None, &#x27;folder&#x27;: &#x27;/home/cc5985/web2py/web2py&#x27;, &#x27;config&#x27;: &#x27;&#x27;, &#x27;minthreads&#x27;: None, &#x27;shell&#x27;: None, &#x27;run&#x27;: &#x27;&#x27;, &#x27;log_filename&#x27;: &#x27;httpserver.log&#x27;, &#x27;profiler_dir&#x27;: None, &#x27;args&#x27;: [&#x27;&#x27;], &#x27;socket_timeout&#x27;: 5, &#x27;ssl_ca_certificate&#x27;: None, &#x27;scheduler&#x27;: None, &#x27;interfaces&#x27;: None, &#x27;ssl_private_key&#x27;: &#x27;&#x27;, &#x27;gae&#x27;: None, &#x27;password&#x27;: &#x27;******&#x27;, &#x27;request_queue_size&#x27;: 5, &#x27;ssl_certificate&#x27;: &#x27;&#x27;, &#x27;cronjob&#x27;: False, &#x27;numthreads&#x27;: None, &#x27;quiet&#x27;: False, &#x27;import_models&#x27;: False, &#x27;timeout&#x27;: 10, &#x27;plain&#x27;: False, &#x27;nobanner&#x27;: False}&gt;</div></td></tr><tr><td style="font-weight:bold;vertical-align:top;">db_sessions</td><td style="vertical-align:top;">:</td><td><div>set([])</div></td></tr><tr><td style="font-weight:bold;vertical-align:top;">debugging</td><td style="vertical-align:top;">:</td><td><div>False</div></td></tr><tr><td style="font-weight:bold;vertical-align:top;">gluon_parent</td><td style="vertical-align:top;">:</td><td><div>/home/cc5985/web2py/web2py</div></td></tr><tr><td style="font-weight:bold;vertical-align:top;">http_accept</td><td style="vertical-align:top;">:</td><td><div>text/html,application/xhtml+xml,application/xml;q=0.9,image/webp,image/apng,*/*;q=0.8</div></td></tr><tr><td style="font-weight:bold;vertical-align:top;">http_accept_encoding</td><td style="vertical-align:top;">:</td><td><div>gzip, deflate, br</div></td></tr><tr><td style="font-weight:bold;vertical-align:top;">http_accept_language</td><td style="vertical-align:top;">:</td><td><div>en-US,en;q=0.9</div></td></tr><tr><td style="font-weight:bold;vertical-align:top;">http_cache_control</td><td style="vertical-align:top;">:</td><td><div>max-age=0</div></td></tr><tr><td style="font-weight:bold;vertical-align:top;">http_connection</td><td style="vertical-align:top;">:</td><td><div>keep-alive</div></td></tr><tr><td style="font-weight:bold;vertical-align:top;">http_cookie</td><td style="vertical-align:top;">:</td><td><div>session_id_admin=127.0.0.1-5e71cd66-3b7d-4c65-adc7-8ed76961285c; adminLanguage=zh; session_id_hello=127.0.0.1-c670ab94-0430-4259-ad19-307c971103d5; session_id_images=127.0.0.1-96a1c6e9-4f42-40bf-8e2a-56582904dcad; session_id_welcome=127.0.0.1-a2d17cbf-7782-4534-9632-440cabc5e777; pga4_session=b17f8d6f-4f60-4c35-97a8-4231024d8610!NMc2rNqZ3v24RlWDyZ08z0LZ+iY=; PGADMIN_LANGUAGE=en; session_id_app1=127.0.0.1-5c1ed551-d0e0-4382-9b01-bf4efc48a769</div></td></tr><tr><td style="font-weight:bold;vertical-align:top;">http_host</td><td style="vertical-align:top;">:</td><td><div>127.0.0.1:8000</div></td></tr><tr><td style="font-weight:bold;vertical-align:top;">http_upgrade_insecure_requests</td><td style="vertical-align:top;">:</td><td><div>1</div></td></tr><tr><td style="font-weight:bold;vertical-align:top;">http_user_agent</td><td style="vertical-align:top;">:</td><td><div>Mozilla/5.0 (X11; Linux x86_64) AppleWebKit/537.36 (KHTML, like Gecko) Chrome/64.0.3282.140 Safari/537.36</div></td></tr><tr><td style="font-weight:bold;vertical-align:top;">is_jython</td><td style="vertical-align:top;">:</td><td><div>False</div></td></tr><tr><td style="font-weight:bold;vertical-align:top;">is_py2</td><td style="vertical-align:top;">:</td><td><div>True</div></td></tr><tr><td style="font-weight:bold;vertical-align:top;">is_pypy</td><td style="vertical-align:top;">:</td><td><div>False</div></td></tr><tr><td style="font-weight:bold;vertical-align:top;">is_source</td><td style="vertical-align:top;">:</td><td><div>True</div></td></tr><tr><td style="font-weight:bold;vertical-align:top;">local_hosts</td><td style="vertical-align:top;">:</td><td><div><table><tr><td><div>::1</div></td></tr><tr><td><div>127.0.1.1</div></td></tr><tr><td><div>::ffff:127.0.0.1</div></td></tr><tr><td><div>127.0.0.1</div></td></tr><tr><td><div>ubuntu</div></td></tr></table></div></td></tr><tr><td style="font-weight:bold;vertical-align:top;">path_info</td><td style="vertical-align:top;">:</td><td><div>/app1/api/call/run/transactions</div></td></tr><tr><td style="font-weight:bold;vertical-align:top;">query_string</td><td style="vertical-align:top;">:</td><td><div>id=GDJHGNGELXCNMIW6PRGP4E5VDG22TCVRCJ45U4X2VD6SYNJ57EJEZXY5</div></td></tr><tr><td style="font-weight:bold;vertical-align:top;">remote_addr</td><td style="vertical-align:top;">:</td><td><div>127.0.0.1</div></td></tr><tr><td style="font-weight:bold;vertical-align:top;">remote_port</td><td style="vertical-align:top;">:</td><td><div>33118</div></td></tr><tr><td style="font-weight:bold;vertical-align:top;">request_method</td><td style="vertical-align:top;">:</td><td><div>GET</div></td></tr><tr><td style="font-weight:bold;vertical-align:top;">request_uri</td><td style="vertical-align:top;">:</td><td><div>/app1/api/call/run/transactions?id=GDJHGNGELXCNMIW6PRGP4E5VDG22TCVRCJ45U4X2VD6SYNJ57EJEZXY5</div></td></tr><tr><td style="font-weight:bold;vertical-align:top;">script_name</td><td style="vertical-align:top;">:</td><td><div></div></td></tr><tr><td style="font-weight:bold;vertical-align:top;">server_name</td><td style="vertical-align:top;">:</td><td><div>ubuntu</div></td></tr><tr><td style="font-weight:bold;vertical-align:top;">server_port</td><td style="vertical-align:top;">:</td><td><div>8000</div></td></tr><tr><td style="font-weight:bold;vertical-align:top;">server_protocol</td><td style="vertical-align:top;">:</td><td><div>HTTP/1.1</div></td></tr><tr><td style="font-weight:bold;vertical-align:top;">server_software</td><td style="vertical-align:top;">:</td><td><div>Rocket 1.2.6</div></td></tr><tr><td style="font-weight:bold;vertical-align:top;">web2py_path</td><td style="vertical-align:top;">:</td><td><div>/home/cc5985/web2py/web2py</div></td></tr><tr><td style="font-weight:bold;vertical-align:top;">web2py_version</td><td style="vertical-align:top;">:</td><td><div>2.16.1-stable+timestamp.2017.11.14.05.54.25</div></td></tr><tr><td style="font-weight:bold;vertical-align:top;">wsgi.errors</td><td style="vertical-align:top;">:</td><td><div>&lt;open file &#x27;&lt;stderr&gt;&#x27;, mode &#x27;w&#x27; at 0x7f94ae9341e0&gt;</div></td></tr><tr><td style="font-weight:bold;vertical-align:top;">wsgi.file_wrapper</td><td style="vertical-align:top;">:</td><td><div>&lt;class wsgiref.util.FileWrapper at 0x7f9497c6cd50&gt;</div></td></tr><tr><td style="font-weight:bold;vertical-align:top;">wsgi.input</td><td style="vertical-align:top;">:</td><td><div>&lt;socket._fileobject object at 0x7f9494458950&gt;</div></td></tr><tr><td style="font-weight:bold;vertical-align:top;">wsgi.multiprocess</td><td style="vertical-align:top;">:</td><td><div>False</div></td></tr><tr><td style="font-weight:bold;vertical-align:top;">wsgi.multithread</td><td style="vertical-align:top;">:</td><td><div>True</div></td></tr><tr><td style="font-weight:bold;vertical-align:top;">wsgi.run_once</td><td style="vertical-align:top;">:</td><td><div>False</div></td></tr><tr><td style="font-weight:bold;vertical-align:top;">wsgi.url_scheme</td><td style="vertical-align:top;">:</td><td><div>http</div></td></tr><tr><td style="font-weight:bold;vertical-align:top;">wsgi.version</td><td style="vertical-align:top;">:</td><td><div><table><tr><td><div>1</div></td></tr><tr><td><div>0</div></td></tr></table></div></td></tr><tr><td style="font-weight:bold;vertical-align:top;">wsgi_errors</td><td style="vertical-align:top;">:</td><td><div>&lt;open file &#x27;&lt;stderr&gt;&#x27;, mode &#x27;w&#x27; at 0x7f94ae9341e0&gt;</div></td></tr><tr><td style="font-weight:bold;vertical-align:top;">wsgi_file_wrapper</td><td style="vertical-align:top;">:</td><td><div>&lt;class wsgiref.util.FileWrapper at 0x7f9497c6cd50&gt;</div></td></tr><tr><td style="font-weight:bold;vertical-align:top;">wsgi_input</td><td style="vertical-align:top;">:</td><td><div>&lt;socket._fileobject object at 0x7f9494458950&gt;</div></td></tr><tr><td style="font-weight:bold;vertical-align:top;">wsgi_multiprocess</td><td style="vertical-align:top;">:</td><td><div>False</div></td></tr><tr><td style="font-weight:bold;vertical-align:top;">wsgi_multithread</td><td style="vertical-align:top;">:</td><td><div>True</div></td></tr><tr><td style="font-weight:bold;vertical-align:top;">wsgi_run_once</td><td style="vertical-align:top;">:</td><td><div>False</div></td></tr><tr><td style="font-weight:bold;vertical-align:top;">wsgi_url_scheme</td><td style="vertical-align:top;">:</td><td><div>http</div></td></tr><tr><td style="font-weight:bold;vertical-align:top;">wsgi_version</td><td style="vertical-align:top;">:</td><td><div><table><tr><td><div>1</div></td></tr><tr><td><div>0</div></td></tr></table></div></td></tr></table></div></td></tr><tr><td style="font-weight:bold;vertical-align:top;">extension</td><td style="vertical-align:top;">:</td><td><div>html</div></td></tr><tr><td style="font-weight:bold;vertical-align:top;">folder</td><td style="vertical-align:top;">:</td><td><div>/home/cc5985/web2py/web2py/applications/app1/</div></td></tr><tr><td style="font-weight:bold;vertical-align:top;">function</td><td style="vertical-align:top;">:</td><td><div>call</div></td></tr><tr><td style="font-weight:bold;vertical-align:top;">global_settings</td><td style="vertical-align:top;">:</td><td><div><table><tr><td style="font-weight:bold;vertical-align:top;">app_folders</td><td style="vertical-align:top;">:</td><td><div>set([&#x27;/home/cc5985/web2py/web2py/applications/welcome/&#x27;, &#x27;/home/cc5985/web2py/web2py/applications/app1/&#x27;])</div></td></tr><tr><td style="font-weight:bold;vertical-align:top;">applications_parent</td><td style="vertical-align:top;">:</td><td><div>/home/cc5985/web2py/web2py</div></td></tr><tr><td style="font-weight:bold;vertical-align:top;">cmd_args</td><td style="vertical-align:top;">:</td><td><div><table></table></div></td></tr><tr><td style="font-weight:bold;vertical-align:top;">cmd_options</td><td style="vertical-align:top;">:</td><td><div>&lt;Values at 0x7f9497c55f38: {&#x27;verbose&#x27;: False, &#x27;ip&#x27;: &#x27;127.0.0.1&#x27;, &#x27;debuglevel&#x27;: 30, &#x27;with_scheduler&#x27;: False, &#x27;shutdown_timeout&#x27;: 5, &#x27;taskbar&#x27;: False, &#x27;with_coverage&#x27;: False, &#x27;pid_filename&#x27;: &#x27;httpserver.pid&#x27;, &#x27;maxthreads&#x27;: None, &#x27;softcron&#x27;: False, &#x27;server_name&#x27;: &#x27;ubuntu&#x27;, &#x27;bpython&#x27;: False, &#x27;nogui&#x27;: False, &#x27;port&#x27;: 8000, &#x27;print_errors&#x27;: False, &#x27;extcron&#x27;: False, &#x27;runcron&#x27;: False, &#x27;run_system_tests&#x27;: False, &#x27;test&#x27;: None, &#x27;folder&#x27;: &#x27;/home/cc5985/web2py/web2py&#x27;, &#x27;config&#x27;: &#x27;&#x27;, &#x27;minthreads&#x27;: None, &#x27;shell&#x27;: None, &#x27;run&#x27;: &#x27;&#x27;, &#x27;log_filename&#x27;: &#x27;httpserver.log&#x27;, &#x27;profiler_dir&#x27;: None, &#x27;args&#x27;: [&#x27;&#x27;], &#x27;socket_timeout&#x27;: 5, &#x27;ssl_ca_certificate&#x27;: None, &#x27;scheduler&#x27;: None, &#x27;interfaces&#x27;: None, &#x27;ssl_private_key&#x27;: &#x27;&#x27;, &#x27;gae&#x27;: None, &#x27;password&#x27;: &#x27;******&#x27;, &#x27;request_queue_size&#x27;: 5, &#x27;ssl_certificate&#x27;: &#x27;&#x27;, &#x27;cronjob&#x27;: False, &#x27;numthreads&#x27;: None, &#x27;quiet&#x27;: False, &#x27;import_models&#x27;: False, &#x27;timeout&#x27;: 10, &#x27;plain&#x27;: False, &#x27;nobanner&#x27;: False}&gt;</div></td></tr><tr><td style="font-weight:bold;vertical-align:top;">db_sessions</td><td style="vertical-align:top;">:</td><td><div>set([])</div></td></tr><tr><td style="font-weight:bold;vertical-align:top;">debugging</td><td style="vertical-align:top;">:</td><td><div>False</div></td></tr><tr><td style="font-weight:bold;vertical-align:top;">gluon_parent</td><td style="vertical-align:top;">:</td><td><div>/home/cc5985/web2py/web2py</div></td></tr><tr><td style="font-weight:bold;vertical-align:top;">is_jython</td><td style="vertical-align:top;">:</td><td><div>False</div></td></tr><tr><td style="font-weight:bold;vertical-align:top;">is_py2</td><td style="vertical-align:top;">:</td><td><div>True</div></td></tr><tr><td style="font-weight:bold;vertical-align:top;">is_pypy</td><td style="vertical-align:top;">:</td><td><div>False</div></td></tr><tr><td style="font-weight:bold;vertical-align:top;">is_source</td><td style="vertical-align:top;">:</td><td><div>True</div></td></tr><tr><td style="font-weight:bold;vertical-align:top;">local_hosts</td><td style="vertical-align:top;">:</td><td><div><table><tr><td><div>::1</div></td></tr><tr><td><div>127.0.1.1</div></td></tr><tr><td><div>::ffff:127.0.0.1</div></td></tr><tr><td><div>127.0.0.1</div></td></tr><tr><td><div>ubuntu</div></td></tr></table></div></td></tr><tr><td style="font-weight:bold;vertical-align:top;">web2py_version</td><td style="vertical-align:top;">:</td><td><div>2.16.1-stable+timestamp.2017.11.14.05.54.25</div></td></tr></table></div></td></tr><tr><td style="font-weight:bold;vertical-align:top;">is_https</td><td style="vertical-align:top;">:</td><td><div>False</div></td></tr><tr><td style="font-weight:bold;vertical-align:top;">is_local</td><td style="vertical-align:top;">:</td><td><div>True</div></td></tr><tr><td style="font-weight:bold;vertical-align:top;">is_restful</td><td style="vertical-align:top;">:</td><td><div>False</div></td></tr><tr><td style="font-weight:bold;vertical-align:top;">is_scheduler</td><td style="vertical-align:top;">:</td><td><div>False</div></td></tr><tr><td style="font-weight:bold;vertical-align:top;">is_shell</td><td style="vertical-align:top;">:</td><td><div>False</div></td></tr><tr><td style="font-weight:bold;vertical-align:top;">now</td><td style="vertical-align:top;">:</td><td><div>datetime.datetime(2018, 8, 11, 21, 59, 49, 554387)</div></td></tr><tr><td style="font-weight:bold;vertical-align:top;">raw_args</td><td style="vertical-align:top;">:</td><td><div>run/transactions</div></td></tr><tr><td style="font-weight:bold;vertical-align:top;">raw_extension</td><td style="vertical-align:top;">:</td><td><div>None</div></td></tr><tr><td style="font-weight:bold;vertical-align:top;">url</td><td style="vertical-align:top;">:</td><td><div>/app1/api/call/run/transactions</div></td></tr><tr><td style="font-weight:bold;vertical-align:top;">utcnow</td><td style="vertical-align:top;">:</td><td><div>datetime.datetime(2018, 8, 11, 13, 59, 49, 554456)</div></td></tr><tr><td style="font-weight:bold;vertical-align:top;">wsgi</td><td style="vertical-align:top;">:</td><td><div>&lt;gluon.main.LazyWSGI object at 0x7f949438b050&gt;</div></td></tr></table></div>'
tRp60
sS'frames'
p61
(lp62
(dp63
S'file'
p64
S'/home/cc5985/web2py/web2py/gluon/restricted.py'
p65
sS'dump'
p66
(dp67
S'environment'
p68
S"{'A': <class 'gluon.html.A'>, 'ANY_OF': <class 'gluon.validators.ANY_OF'>, 'ASSIGNJS': <function ASSIGNJS>, 'AppConfig': <function AppConfig>, 'Auth': <class 'gluon.tools.Auth'>, 'B': <class 'gluon.html.B'>, 'BASE_URL': 'http://localhost:8888', 'BEAUTIFY': <class 'gluon.html.BEAUTIFY'>, 'BODY': <class 'gluon.html.BODY'>, 'BR': <class 'gluon.html.BR'>, ...}"
p69
sS'ccode'
p70
S'<code object <module> at 0x7f94942f8a30, file "/...py/applications/app1/controllers/api.py", line 1>'
p71
ssS'lnum'
p72
I219
sS'lines'
p73
(dp74
I214
S'    if environment is None:'
p75
sI215
S'        environment = {}'
p76
sI216
S"    environment['__file__'] = layer"
p77
sI217
S"    environment['__name__'] = '__restricted__'"
p78
sI218
S'    try:'
p79
sI219
S'        exec(ccode, environment)'
p80
sI220
S'    except HTTP:'
p81
sI221
S'        raise'
p82
sI222
S'    except RestrictedError:'
p83
sI223
S'        # do not encapsulate (obfuscate) the original RestrictedError'
p84
ssS'call'
p85
S'(ccode=<code object <module> at 0x7f94942f8a30, file "/...py/applications/app1/controllers/api.py", line 1>, environment={\'A\': <class \'gluon.html.A\'>, \'ANY_OF\': <class \'gluon.validators.ANY_OF\'>, \'ASSIGNJS\': <function ASSIGNJS>, \'AppConfig\': <function AppConfig>, \'Auth\': <class \'gluon.tools.Auth\'>, \'B\': <class \'gluon.html.B\'>, \'BASE_URL\': \'http://localhost:8888\', \'BEAUTIFY\': <class \'gluon.html.BEAUTIFY\'>, \'BODY\': <class \'gluon.html.BODY\'>, \'BR\': <class \'gluon.html.BR\'>, ...}, layer=\'/home/cc5985/web2py/web2py/applications/app1/controllers/api.py\', scode=<code object <module> at 0x7f94942f8a30, file "/...py/applications/app1/controllers/api.py", line 1>)'
p86
sS'func'
p87
S'restricted'
p88
sa(dp89
g64
S'/home/cc5985/web2py/web2py/applications/app1/controllers/api.py'
p90
sg66
(dp91
sg72
I122
sg73
(dp92
I111
S"            asset_issuer=record['asset_issuer']"
p93
sI112
S"            fromer=record['from']"
p94
sI113
S"            toer=record['to']"
p95
sI114
S"            amount=record['amount']"
p96
sI115
S'            item=dict(item)'
p97
sI116
S"            if item.get('asset_code','') == 'LINK' and item.get('asset_issuer','') == '':"
p98
sI117
S"                result['link']=float(item['balance'])"
p99
sI118
S'    return json.dumps(result)'
p100
sI119
S''
sI120
S''
ssg85
S'()'
p101
sg87
S'<module>'
p102
sa(dp103
g64
S'/home/cc5985/web2py/web2py/gluon/globals.py'
p104
sg66
(dp105
S'self'
p106
S'undefined'
p107
sS'f'
S'<function call>'
p108
ssg72
I420
sg73
(dp109
I416
S'        self.meta = Storage()      # used by web2py_ajax.html'
p110
sI417
S'        self.menu = []             # used by the default view layout'
p111
sI418
S'        self.files = []            # used by web2py_ajax.html'
p112
sI419
S'        self._vars = None'
p113
sI420
S'        self._caller = lambda f: f()'
p114
sI421
S'        self._view_environment = None'
p115
sI422
S'        self._custom_commit = None'
p116
sI423
S'        self._custom_rollback = None'
p117
sI424
S"        self.generic_patterns = ['*']"
p118
sI415
S"        self.flash = ''            # used by the default view layout"
p119
ssg85
S'(f=<function call>)'
p120
sg87
S'<lambda>'
p121
sa(dp122
g64
S'/home/cc5985/web2py/web2py/applications/app1/controllers/api.py'
p123
sg66
(dp124
S'global service'
p125
S'<gluon.tools.Service object>'
p126
ssg72
I12
sg73
(dp127
I7
S"BASE_URL = 'http://localhost:8888'"
p128
sI8
S'service = Service()'
p129
sI9
S''
sI10
S'def call():'
p130
sI11
S'    session.forget()'
p131
sI12
S'    return service()'
p132
sI13
S''
sI14
S''
sI15
S'@service.run'
p133
sI16
S'def add(x,y):'
p134
ssg85
S'()'
p135
sg87
g85
sa(dp136
g64
S'/home/cc5985/web2py/web2py/gluon/tools.py'
p137
sg66
(dp138
S'request.args'
p139
S"['run', 'transactions']"
p140
sS'self.serve_run'
p141
S'<bound method Service.serve_run of <gluon.tools.Service object>>'
p142
sS'self'
p143
S'<gluon.tools.Service object>'
p144
sS'request'
p145
S"<Storage {'_vars': <Storage {'id': 'GDJHGNGELXCN...'/home/cc5985/web2py/web2py/applications/app1/'}>"
p146
ssg72
I5473
sg73
(dp147
I5472
S"        if arg0 == 'run':"
p148
sI5473
S'            return self.serve_run(request.args[1:])'
p149
sI5474
S"        elif arg0 == 'rss':"
p150
sI5475
S'            return self.serve_rss(request.args[1:])'
p151
sI5476
S"        elif arg0 == 'csv':"
p152
sI5477
S'            return self.serve_csv(request.args[1:])'
p153
sI5468
S'        request = current.request'
p154
sI5469
S'        if len(request.args) < 1:'
p155
sI5470
S'            raise HTTP(404, "Not Found")'
p156
sI5471
S'        arg0 = request.args(0)'
p157
ssg85
S'(self=<gluon.tools.Service object>)'
p158
sg87
S'__call__'
p159
sa(dp160
g64
S'/home/cc5985/web2py/web2py/gluon/tools.py'
p161
sg66
(dp162
S'request.vars'
p163
S"<Storage {'id': 'GDJHGNGELXCNMIW6PRGP4E5VDG22TCVRCJ45U4X2VD6SYNJ57EJEZXY5'}>"
p164
sS'args'
p165
S"['transactions']"
p166
sS'request'
p167
S"<Storage {'_vars': <Storage {'id': 'GDJHGNGELXCN...'/home/cc5985/web2py/web2py/applications/app1/'}>"
p168
sS'builtindict'
p169
S"<type 'dict'>"
p170
ssg72
I5090
sg73
(dp171
I5088
S'        if args and args[0] in self.run_procedures:'
p172
sI5089
S'            return str(self.call_service_function(self.run_procedures[args[0]],'
p173
sI5090
S'                                                  *args[1:], **dict(request.vars)))'
p174
sI5091
S'        self.error()'
p175
sI5092
S''
sI5093
S'    def serve_csv(self, args=None):'
p176
sI5094
S'        request = current.request'
p177
sI5085
S'        request = current.request'
p178
sI5086
S'        if not args:'
p179
sI5087
S'            args = request.args'
p180
ssg85
S"(self=<gluon.tools.Service object>, args=['transactions'])"
p181
sg87
S'serve_run'
p182
sa(dp183
g64
S'/home/cc5985/web2py/web2py/gluon/tools.py'
p184
sg66
(dp185
S'a'
S'()'
p186
sS'b'
S"{'id': 'GDJHGNGELXCNMIW6PRGP4E5VDG22TCVRCJ45U4X2VD6SYNJ57EJEZXY5'}"
p187
sS'f'
S'<function transactions>'
p188
ssg72
I5506
sg73
(dp189
I5504
S'            return universal_caller(f, *a, **b)'
p190
sI5505
S'        else:'
p191
sI5506
S'            return f(*a, **b)'
p192
sI5507
S''
sI5508
S''
sI5509
S'def completion(callback):'
p193
sI5510
S'    """'
p194
sI5501
S'    # but the default implmentation is the simplest: just pass the arguments we got, with no checking'
p195
sI5502
S'    def call_service_function(self, f, *a, **b):'
p196
sI5503
S'        if self.check_args:'
p197
ssg85
S"(self=<gluon.tools.Service object>, f=<function transactions>, *a=(), **b={'id': 'GDJHGNGELXCNMIW6PRGP4E5VDG22TCVRCJ45U4X2VD6SYNJ57EJEZXY5'})"
p198
sg87
S'call_service_function'
p199
sa(dp200
g64
S'/home/cc5985/web2py/web2py/applications/app1/controllers/api.py'
p201
sg66
(dp202
S'record'
p203
S"{u'_links': {u'effects': {u'href': u'http://localhost:8888/operations/1129576402945/effects'}, u'precedes': {u'href': u'http://localhost:8888/effects?order=asc&cursor=1129576402945'}, u'self': {u'href': u'http://localhost:8888/operations/1129576402945'}, u'succeeds': {u'href': u'http://localhost:8888/effects?order=desc&cursor=1129576402945'}, u'transaction': {u'href': u'http://localhost:8888/transactions/b207bf08568...be72ef09d04c7b2ef4b940237dbc5784b6bf4c00c395d467'}}, u'account': u'GB3IFCOI2SUQBQPZ3TM4BPZIDWQP6EI22LG53XBL5IQSTY5HULHTAWNH', u'created_at': u'2018-08-10T03:48:13Z', u'funder': u'GDJHGNGELXCNMIW6PRGP4E5VDG22TCVRCJ45U4X2VD6SYNJ57EJEZXY5', u'id': u'1129576402945', u'paging_token': u'1129576402945', u'source_account': u'GDJHGNGELXCNMIW6PRGP4E5VDG22TCVRCJ45U4X2VD6SYNJ57EJEZXY5', u'starting_balance': u'30.0000000', u'transaction_hash': u'b207bf0856840bdebe72ef09d04c7b2ef4b940237dbc5784b6bf4c00c395d467', u'type': u'create_account', ...}"
p204
sS'builtinhash'
p205
S'<built-in function hash>'
p206
ssg72
I109
sg73
(dp207
I104
S"            '''"
p208
sI105
S"            id=record['id']"
p209
sI106
S"            source_account=record['source_account']"
p210
sI107
S"            type=record['type']"
p211
sI108
S"            created_at=record['created_at']"
p212
sI109
S"            hash=record['hash']"
p213
sI110
S"            asset_code=record['asset_code']"
p214
sI111
S"            asset_issuer=record['asset_issuer']"
p215
sI112
S"            fromer=record['from']"
p216
sI113
S"            toer=record['to']"
p217
ssg85
S"(id=u'1129576402945')"
p218
sg87
S'transactions'
p219
sasS'pyver'
p220
S'Python 2.7.12: /home/cc5985/web2py/web2py/applications/app1/venv/bin/python (prefix: /home/cc5985/web2py/web2py/applications/app1/venv)'
p221
sS'session'
p222
g59
(S's\x1a\x00\x00\x00<div><table></table></div>'
tRp223
sS'etype'
p224
S"<type 'exceptions.KeyError'>"
p225
sS'date'
p226
S'Sat Aug 11 22:00:53 2018'
p227
sS'response'
p228
g59
(S's\x0f<\x00\x00<div><table><tr><td style="font-weight:bold;vertical-align:top;">body</td><td style="vertical-align:top;">:</td><td><div>&lt;cStringIO.StringO object at 0x7f949445cf10&gt;</div></td></tr><tr><td style="font-weight:bold;vertical-align:top;">cookies</td><td style="vertical-align:top;">:</td><td><div><table><tr><td style="font-weight:bold;vertical-align:top;">session_id_app1</td><td style="vertical-align:top;">:</td><td><div>127.0.0.1-ffccbb16-96af-4289-985c-9167639f430f<table><tr><td style="font-weight:bold;vertical-align:top;">comment</td><td style="vertical-align:top;">:</td><td><div></div></td></tr><tr><td style="font-weight:bold;vertical-align:top;">domain</td><td style="vertical-align:top;">:</td><td><div></div></td></tr><tr><td style="font-weight:bold;vertical-align:top;">expires</td><td style="vertical-align:top;">:</td><td><div></div></td></tr><tr><td style="font-weight:bold;vertical-align:top;">httponly</td><td style="vertical-align:top;">:</td><td><div></div></td></tr><tr><td style="font-weight:bold;vertical-align:top;">max-age</td><td style="vertical-align:top;">:</td><td><div></div></td></tr><tr><td style="font-weight:bold;vertical-align:top;">path</td><td style="vertical-align:top;">:</td><td><div>/</div></td></tr><tr><td style="font-weight:bold;vertical-align:top;">secure</td><td style="vertical-align:top;">:</td><td><div></div></td></tr><tr><td style="font-weight:bold;vertical-align:top;">version</td><td style="vertical-align:top;">:</td><td><div></div></td></tr></table></div></td></tr></table></div></td></tr><tr><td style="font-weight:bold;vertical-align:top;">delimiters</td><td style="vertical-align:top;">:</td><td><div><table><tr><td><div>{{</div></td></tr><tr><td><div>}}</div></td></tr></table></div></td></tr><tr><td style="font-weight:bold;vertical-align:top;">files</td><td style="vertical-align:top;">:</td><td><div><table></table></div></td></tr><tr><td style="font-weight:bold;vertical-align:top;">flash</td><td style="vertical-align:top;">:</td><td><div></div></td></tr><tr><td style="font-weight:bold;vertical-align:top;">form_label_separator</td><td style="vertical-align:top;">:</td><td><div></div></td></tr><tr><td style="font-weight:bold;vertical-align:top;">formstyle</td><td style="vertical-align:top;">:</td><td><div>bootstrap4_inline</div></td></tr><tr><td style="font-weight:bold;vertical-align:top;">generic_patterns</td><td style="vertical-align:top;">:</td><td><div><table><tr><td><div>*</div></td></tr></table></div></td></tr><tr><td style="font-weight:bold;vertical-align:top;">google_analytics_id</td><td style="vertical-align:top;">:</td><td><div>None</div></td></tr><tr><td style="font-weight:bold;vertical-align:top;">headers</td><td style="vertical-align:top;">:</td><td><div><table><tr><td style="font-weight:bold;vertical-align:top;">Access-Control-Allow-Origin</td><td style="vertical-align:top;">:</td><td><div>*</div></td></tr><tr><td style="font-weight:bold;vertical-align:top;">X-Powered-By</td><td style="vertical-align:top;">:</td><td><div>web2py</div></td></tr></table></div></td></tr><tr><td style="font-weight:bold;vertical-align:top;">menu</td><td style="vertical-align:top;">:</td><td><div><table><tr><td><div><table><tr><td><div>Home</div></td></tr><tr><td><div>False</div></td></tr><tr><td><div>/app1/default/index</div></td></tr><tr><td><div><table></table></div></td></tr></table></div></td></tr><tr><td><div><table><tr><td><div>My Sites</div></td></tr><tr><td><div>False</div></td></tr><tr><td><div>/admin/default/site</div></td></tr></table></div></td></tr><tr><td><div><table><tr><td><div>This App</div></td></tr><tr><td><div>False</div></td></tr><tr><td><div>#</div></td></tr><tr><td><div><table><tr><td><div><table><tr><td><div>Design</div></td></tr><tr><td><div>False</div></td></tr><tr><td><div>/admin/default/design/app1</div></td></tr></table></div></td></tr><tr><td><div><table><tr><td><div>Controller</div></td></tr><tr><td><div>False</div></td></tr><tr><td><div>/admin/default/edit/app1/controllers/api.py</div></td></tr></table></div></td></tr><tr><td><div><table><tr><td><div>View</div></td></tr><tr><td><div>False</div></td></tr><tr><td><div>/admin/default/edit/app1/views/api/call.html</div></td></tr></table></div></td></tr><tr><td><div><table><tr><td><div>DB Model</div></td></tr><tr><td><div>False</div></td></tr><tr><td><div>/admin/default/edit/app1/models/db.py</div></td></tr></table></div></td></tr><tr><td><div><table><tr><td><div>Menu Model</div></td></tr><tr><td><div>False</div></td></tr><tr><td><div>/admin/default/edit/app1/models/menu.py</div></td></tr></table></div></td></tr><tr><td><div><table><tr><td><div>Config.ini</div></td></tr><tr><td><div>False</div></td></tr><tr><td><div>/admin/default/edit/app1/private/appconfig.ini</div></td></tr></table></div></td></tr><tr><td><div><table><tr><td><div>Layout</div></td></tr><tr><td><div>False</div></td></tr><tr><td><div>/admin/default/edit/app1/views/layout.html</div></td></tr></table></div></td></tr><tr><td><div><table><tr><td><div>Stylesheet</div></td></tr><tr><td><div>False</div></td></tr><tr><td><div>/admin/default/edit/app1/static/css/web2py-bootstrap3.css</div></td></tr></table></div></td></tr><tr><td><div><table><tr><td><div>Database</div></td></tr><tr><td><div>False</div></td></tr><tr><td><div>/app1/appadmin/index</div></td></tr></table></div></td></tr><tr><td><div><table><tr><td><div>Errors</div></td></tr><tr><td><div>False</div></td></tr><tr><td><div>/admin/default/errors/app1</div></td></tr></table></div></td></tr><tr><td><div><table><tr><td><div>About</div></td></tr><tr><td><div>False</div></td></tr><tr><td><div>/admin/default/about/app1</div></td></tr></table></div></td></tr></table></div></td></tr></table></div></td></tr><tr><td><div><table><tr><td><div>web2py.com</div></td></tr><tr><td><div>False</div></td></tr><tr><td><div>#</div></td></tr><tr><td><div><table><tr><td><div><table><tr><td><div>Download</div></td></tr><tr><td><div>False</div></td></tr><tr><td><div>http://www.web2py.com/examples/default/download</div></td></tr></table></div></td></tr><tr><td><div><table><tr><td><div>Support</div></td></tr><tr><td><div>False</div></td></tr><tr><td><div>http://www.web2py.com/examples/default/support</div></td></tr></table></div></td></tr><tr><td><div><table><tr><td><div>Demo</div></td></tr><tr><td><div>False</div></td></tr><tr><td><div>http://web2py.com/demo_admin</div></td></tr></table></div></td></tr><tr><td><div><table><tr><td><div>Quick Examples</div></td></tr><tr><td><div>False</div></td></tr><tr><td><div>http://web2py.com/examples/default/examples</div></td></tr></table></div></td></tr><tr><td><div><table><tr><td><div>FAQ</div></td></tr><tr><td><div>False</div></td></tr><tr><td><div>http://web2py.com/AlterEgo</div></td></tr></table></div></td></tr><tr><td><div><table><tr><td><div>Videos</div></td></tr><tr><td><div>False</div></td></tr><tr><td><div>http://www.web2py.com/examples/default/videos/</div></td></tr></table></div></td></tr><tr><td><div><table><tr><td><div>Free Applications</div></td></tr><tr><td><div>False</div></td></tr><tr><td><div>http://web2py.com/appliances</div></td></tr></table></div></td></tr><tr><td><div><table><tr><td><div>Plugins</div></td></tr><tr><td><div>False</div></td></tr><tr><td><div>http://web2py.com/plugins</div></td></tr></table></div></td></tr><tr><td><div><table><tr><td><div>Recipes</div></td></tr><tr><td><div>False</div></td></tr><tr><td><div>http://web2pyslices.com/</div></td></tr></table></div></td></tr></table></div></td></tr></table></div></td></tr><tr><td><div><table><tr><td><div>Documentation</div></td></tr><tr><td><div>False</div></td></tr><tr><td><div>#</div></td></tr><tr><td><div><table><tr><td><div><table><tr><td><div>Online book</div></td></tr><tr><td><div>False</div></td></tr><tr><td><div>http://www.web2py.com/book</div></td></tr></table></div></td></tr><tr><td><div><table><tr><td><div>Preface</div></td></tr><tr><td><div>False</div></td></tr><tr><td><div>http://www.web2py.com/book/default/chapter/00</div></td></tr></table></div></td></tr><tr><td><div><table><tr><td><div>Introduction</div></td></tr><tr><td><div>False</div></td></tr><tr><td><div>http://www.web2py.com/book/default/chapter/01</div></td></tr></table></div></td></tr><tr><td><div><table><tr><td><div>Python</div></td></tr><tr><td><div>False</div></td></tr><tr><td><div>http://www.web2py.com/book/default/chapter/02</div></td></tr></table></div></td></tr><tr><td><div><table><tr><td><div>Overview</div></td></tr><tr><td><div>False</div></td></tr><tr><td><div>http://www.web2py.com/book/default/chapter/03</div></td></tr></table></div></td></tr><tr><td><div><table><tr><td><div>The Core</div></td></tr><tr><td><div>False</div></td></tr><tr><td><div>http://www.web2py.com/book/default/chapter/04</div></td></tr></table></div></td></tr><tr><td><div><table><tr><td><div>The Views</div></td></tr><tr><td><div>False</div></td></tr><tr><td><div>http://www.web2py.com/book/default/chapter/05</div></td></tr></table></div></td></tr><tr><td><div><table><tr><td><div>Database</div></td></tr><tr><td><div>False</div></td></tr><tr><td><div>http://www.web2py.com/book/default/chapter/06</div></td></tr></table></div></td></tr><tr><td><div><table><tr><td><div>Forms and Validators</div></td></tr><tr><td><div>False</div></td></tr><tr><td><div>http://www.web2py.com/book/default/chapter/07</div></td></tr></table></div></td></tr><tr><td><div><table><tr><td><div>Email and SMS</div></td></tr><tr><td><div>False</div></td></tr><tr><td><div>http://www.web2py.com/book/default/chapter/08</div></td></tr></table></div></td></tr><tr><td><div><table><tr><td><div>Access Control</div></td></tr><tr><td><div>False</div></td></tr><tr><td><div>http://www.web2py.com/book/default/chapter/09</div></td></tr></table></div></td></tr><tr><td><div><table><tr><td><div>Services</div></td></tr><tr><td><div>False</div></td></tr><tr><td><div>http://www.web2py.com/book/default/chapter/10</div></td></tr></table></div></td></tr><tr><td><div><table><tr><td><div>Ajax Recipes</div></td></tr><tr><td><div>False</div></td></tr><tr><td><div>http://www.web2py.com/book/default/chapter/11</div></td></tr></table></div></td></tr><tr><td><div><table><tr><td><div>Components and Plugins</div></td></tr><tr><td><div>False</div></td></tr><tr><td><div>http://www.web2py.com/book/default/chapter/12</div></td></tr></table></div></td></tr><tr><td><div><table><tr><td><div>Deployment Recipes</div></td></tr><tr><td><div>False</div></td></tr><tr><td><div>http://www.web2py.com/book/default/chapter/13</div></td></tr></table></div></td></tr><tr><td><div><table><tr><td><div>Other Recipes</div></td></tr><tr><td><div>False</div></td></tr><tr><td><div>http://www.web2py.com/book/default/chapter/14</div></td></tr></table></div></td></tr><tr><td><div><table><tr><td><div>Helping web2py</div></td></tr><tr><td><div>False</div></td></tr><tr><td><div>http://www.web2py.com/book/default/chapter/15</div></td></tr></table></div></td></tr><tr><td><div><table><tr><td><div>Buy web2py\'s book</div></td></tr><tr><td><div>False</div></td></tr><tr><td><div>http://stores.lulu.com/web2py</div></td></tr></table></div></td></tr></table></div></td></tr></table></div></td></tr><tr><td><div><table><tr><td><div>Community</div></td></tr><tr><td><div>False</div></td></tr><tr><td><div>None</div></td></tr><tr><td><div><table><tr><td><div><table><tr><td><div>Groups</div></td></tr><tr><td><div>False</div></td></tr><tr><td><div>http://www.web2py.com/examples/default/usergroups</div></td></tr></table></div></td></tr><tr><td><div><table><tr><td><div>Twitter</div></td></tr><tr><td><div>False</div></td></tr><tr><td><div>http://twitter.com/web2py</div></td></tr></table></div></td></tr><tr><td><div><table><tr><td><div>Live Chat</div></td></tr><tr><td><div>False</div></td></tr><tr><td><div>http://webchat.freenode.net/?channels=web2py</div></td></tr></table></div></td></tr></table></div></td></tr></table></div></td></tr></table></div></td></tr><tr><td style="font-weight:bold;vertical-align:top;">meta</td><td style="vertical-align:top;">:</td><td><div><table><tr><td style="font-weight:bold;vertical-align:top;">author</td><td style="vertical-align:top;">:</td><td><div>Your Name &lt;you@example.com&gt;</div></td></tr><tr><td style="font-weight:bold;vertical-align:top;">description</td><td style="vertical-align:top;">:</td><td><div>a cool new app</div></td></tr><tr><td style="font-weight:bold;vertical-align:top;">generator</td><td style="vertical-align:top;">:</td><td><div>Web2py Web Framework</div></td></tr><tr><td style="font-weight:bold;vertical-align:top;">keywords</td><td style="vertical-align:top;">:</td><td><div><table><tr><td><div>web2py</div></td></tr><tr><td><div>python</div></td></tr><tr><td><div>framework</div></td></tr></table></div></td></tr></table></div></td></tr><tr><td style="font-weight:bold;vertical-align:top;">models_to_run</td><td style="vertical-align:top;">:</td><td><div><table><tr><td><div>^\\w+\\.py$</div></td></tr><tr><td><div>^api/\\w+\\.py$</div></td></tr><tr><td><div>^api/call/\\w+\\.py$</div></td></tr></table></div></td></tr><tr><td style="font-weight:bold;vertical-align:top;">postprocessing</td><td style="vertical-align:top;">:</td><td><div><table></table></div></td></tr><tr><td style="font-weight:bold;vertical-align:top;">session_client</td><td style="vertical-align:top;">:</td><td><div>127.0.0.1</div></td></tr><tr><td style="font-weight:bold;vertical-align:top;">session_cookie_compression_level</td><td style="vertical-align:top;">:</td><td><div>None</div></td></tr><tr><td style="font-weight:bold;vertical-align:top;">session_cookie_expires</td><td style="vertical-align:top;">:</td><td><div>None</div></td></tr><tr><td style="font-weight:bold;vertical-align:top;">session_data_name</td><td style="vertical-align:top;">:</td><td><div>session_data_app1</div></td></tr><tr><td style="font-weight:bold;vertical-align:top;">session_file</td><td style="vertical-align:top;">:</td><td><div>None</div></td></tr><tr><td style="font-weight:bold;vertical-align:top;">session_filename</td><td style="vertical-align:top;">:</td><td><div>/home/cc5985/web2py/web2py/applications/app1/sessions/127.0.0.1-ffccbb16-96af-4289-985c-9167639f430f</div></td></tr><tr><td style="font-weight:bold;vertical-align:top;">session_hash</td><td style="vertical-align:top;">:</td><td><div>c0762cbf4baf7f9af97c051e7fcb8083</div></td></tr><tr><td style="font-weight:bold;vertical-align:top;">session_id</td><td style="vertical-align:top;">:</td><td><div>127.0.0.1-ffccbb16-96af-4289-985c-9167639f430f</div></td></tr><tr><td style="font-weight:bold;vertical-align:top;">session_id_name</td><td style="vertical-align:top;">:</td><td><div>session_id_app1</div></td></tr><tr><td style="font-weight:bold;vertical-align:top;">session_masterapp</td><td style="vertical-align:top;">:</td><td><div>app1</div></td></tr><tr><td style="font-weight:bold;vertical-align:top;">session_new</td><td style="vertical-align:top;">:</td><td><div>True</div></td></tr><tr><td style="font-weight:bold;vertical-align:top;">session_storage_type</td><td style="vertical-align:top;">:</td><td><div>file</div></td></tr><tr><td style="font-weight:bold;vertical-align:top;">status</td><td style="vertical-align:top;">:</td><td><div>200</div></td></tr><tr><td style="font-weight:bold;vertical-align:top;">view</td><td style="vertical-align:top;">:</td><td><div>api/call.html</div></td></tr></table></div>'
tRp229
sS'locals'
p230
(dp231
S'source_account'
p232
S"u'GDJHGNGELXCNMIW6PRGP4E5VDG22TCVRCJ45U4X2VD6SYNJ57EJEZXY5'"
p233
sS'embedded'
p234
S"{u'records': [{u'_links': {u'effects': {u'href': u'http://localhost:8888/operations/1129576402945/effects'}, u'precedes': {u'href': u'http://localhost:8888/effects?order=asc&cursor=1129576402945'}, u'self': {u'href': u'http://localhost:8888/operations/1129576402945'}, u'succeeds': {u'href': u'http://localhost:8888/effects?order=desc&cursor=1129576402945'}, u'transaction': {u'href': u'http://localhost:8888/transactions/b207bf08568...be72ef09d04c7b2ef4b940237dbc5784b6bf4c00c395d467'}}, u'account': u'GB3IFCOI2SUQBQPZ3TM4BPZIDWQP6EI22LG53XBL5IQSTY5HULHTAWNH', u'created_at': u'2018-08-10T03:48:13Z', u'funder': u'GDJHGNGELXCNMIW6PRGP4E5VDG22TCVRCJ45U4X2VD6SYNJ57EJEZXY5', u'id': u'1129576402945', u'paging_token': u'1129576402945', u'source_account': u'GDJHGNGELXCNMIW6PRGP4E5VDG22TCVRCJ45U4X2VD6SYNJ57EJEZXY5', u'starting_balance': u'30.0000000', u'transaction_hash': u'b207bf0856840bdebe72ef09d04c7b2ef4b940237dbc5784b6bf4c00c395d467', u'type': u'create_account', ...}, {u'_links': {u'effects': {u'href': u'http://localhost:8888/operations/21406117007361/effects'}, u'precedes': {u'href': u'http://localhost:8888/effects?order=asc&cursor=21406117007361'}, u'self': {u'href': u'http://localhost:8888/operations/21406117007361'}, u'succeeds': {u'href': u'http://localhost:8888/effects?order=desc&cursor=21406117007361'}, u'transaction': {u'href': u'http://localhost:8888/transactions/ebc743855db...1b81b10ae259a462456ea5eca003d6fca43c885b3d7514e5'}}, u'account': u'GDXNGRDZX3P3BWMNTEBM5ZSQQOOIQOO5RPQDIRXOBLQRJRBEOAWZCTPA', u'created_at': u'2018-08-10T13:15:29Z', u'funder': u'GDJHGNGELXCNMIW6PRGP4E5VDG22TCVRCJ45U4X2VD6SYNJ57EJEZXY5', u'id': u'21406117007361', u'paging_token': u'21406117007361', u'source_account': u'GDJHGNGELXCNMIW6PRGP4E5VDG22TCVRCJ45U4X2VD6SYNJ57EJEZXY5', u'starting_balance': u'30.0000000', u'transaction_hash': u'ebc743855db20eec1b81b10ae259a462456ea5eca003d6fca43c885b3d7514e5', u'type': u'create_account', ...}, {u'_links': {u'effects': {u'href': u'http://localhost:8888/operations/21414706941953/effects'}, u'precedes': {u'href': u'http://localhost:8888/effects?order=asc&cursor=21414706941953'}, u'self': {u'href': u'http://localhost:8888/operations/21414706941953'}, u'succeeds': {u'href': u'http://localhost:8888/effects?order=desc&cursor=21414706941953'}, u'transaction': {u'href': u'http://localhost:8888/transactions/77aaf85245e...b1c361b5be1e08f8ed2ff03d2b029cf1be4765fbfcd3f044'}}, u'account': u'GAPGOOP2XL6NKP3BU2WY6N7JLBFY2ECWCSCBHDT73CBE3C2J2OGXNNRZ', u'created_at': u'2018-08-10T13:15:39Z', u'funder': u'GDJHGNGELXCNMIW6PRGP4E5VDG22TCVRCJ45U4X2VD6SYNJ57EJEZXY5', u'id': u'21414706941953', u'paging_token': u'21414706941953', u'source_account': u'GDJHGNGELXCNMIW6PRGP4E5VDG22TCVRCJ45U4X2VD6SYNJ57EJEZXY5', u'starting_balance': u'30.0000000', u'transaction_hash': u'77aaf85245efc40bb1c361b5be1e08f8ed2ff03d2b029cf1be4765fbfcd3f044', u'type': u'create_account', ...}, {u'_links': {u'effects': {u'href': u'http://localhost:8888/operations/21423296876545/effects'}, u'precedes': {u'href': u'http://localhost:8888/effects?order=asc&cursor=21423296876545'}, u'self': {u'href': u'http://localhost:8888/operations/21423296876545'}, u'succeeds': {u'href': u'http://localhost:8888/effects?order=desc&cursor=21423296876545'}, u'transaction': {u'href': u'http://localhost:8888/transactions/95c5431f902...91e6455b3557a752a2d9ec2898301fcc4fa505847dfcb5bb'}}, u'account': u'GBWH3NCA65E2E5OZ7R5V3UVOEU6IQSJR42CRDTCT52M3M3RSURGWPCWL', u'created_at': u'2018-08-10T13:15:49Z', u'funder': u'GDJHGNGELXCNMIW6PRGP4E5VDG22TCVRCJ45U4X2VD6SYNJ57EJEZXY5', u'id': u'21423296876545', u'paging_token': u'21423296876545', u'source_account': u'GDJHGNGELXCNMIW6PRGP4E5VDG22TCVRCJ45U4X2VD6SYNJ57EJEZXY5', u'starting_balance': u'30.0000000', u'transaction_hash': u'95c5431f902d602b91e6455b3557a752a2d9ec2898301fcc4fa505847dfcb5bb', u'type': u'create_account', ...}, {u'_links': {u'effects': {u'href': u'http://localhost:8888/operations/21431886811137/effects'}, u'precedes': {u'href': u'http://localhost:8888/effects?order=asc&cursor=21431886811137'}, u'self': {u'href': u'http://localhost:8888/operations/21431886811137'}, u'succeeds': {u'href': u'http://localhost:8888/effects?order=desc&cursor=21431886811137'}, u'transaction': {u'href': u'http://localhost:8888/transactions/15e1ce62a41...00bc87a6be19826dd81de0167ae894c3b536fdc75a3a8edd'}}, u'account': u'GDVW4GWBXP45VX5JQX3GKBLOERVT35I3FC6XFZR75IUGMXJFEKSGD2OJ', u'created_at': u'2018-08-10T13:16:00Z', u'funder': u'GDJHGNGELXCNMIW6PRGP4E5VDG22TCVRCJ45U4X2VD6SYNJ57EJEZXY5', u'id': u'21431886811137', u'paging_token': u'21431886811137', u'source_account': u'GDJHGNGELXCNMIW6PRGP4E5VDG22TCVRCJ45U4X2VD6SYNJ57EJEZXY5', u'starting_balance': u'30.0000000', u'transaction_hash': u'15e1ce62a41b8e8600bc87a6be19826dd81de0167ae894c3b536fdc75a3a8edd', u'type': u'create_account', ...}, {u'_links': {u'effects': {u'href': u'http://localhost:8888/operations/21440476745729/effects'}, u'precedes': {u'href': u'http://localhost:8888/effects?order=asc&cursor=21440476745729'}, u'self': {u'href': u'http://localhost:8888/operations/21440476745729'}, u'succeeds': {u'href': u'http://localhost:8888/effects?order=desc&cursor=21440476745729'}, u'transaction': {u'href': u'http://localhost:8888/transactions/5a9cba44d9a...0b12915828cdaa4c45e4e9f9d290fd19d9dc7895c615092a'}}, u'account': u'GD4IXRUFCI3PLYZWEIND5G6FXFYD4DGFY52ISLBNNBV4L4ANK4AXRJEW', u'created_at': u'2018-08-10T13:16:10Z', u'funder': u'GDJHGNGELXCNMIW6PRGP4E5VDG22TCVRCJ45U4X2VD6SYNJ57EJEZXY5', u'id': u'21440476745729', u'paging_token': u'21440476745729', u'source_account': u'GDJHGNGELXCNMIW6PRGP4E5VDG22TCVRCJ45U4X2VD6SYNJ57EJEZXY5', u'starting_balance': u'30.0000000', u'transaction_hash': u'5a9cba44d9ad4e560b12915828cdaa4c45e4e9f9d290fd19d9dc7895c615092a', u'type': u'create_account', ...}, {u'_links': {u'effects': {u'href': u'http://localhost:8888/operations/21449066680321/effects'}, u'precedes': {u'href': u'http://localhost:8888/effects?order=asc&cursor=21449066680321'}, u'self': {u'href': u'http://localhost:8888/operations/21449066680321'}, u'succeeds': {u'href': u'http://localhost:8888/effects?order=desc&cursor=21449066680321'}, u'transaction': {u'href': u'http://localhost:8888/transactions/69e97fc670c...b26d1800881bbb914ee4902e840a843fcd34c1b5326a5f32'}}, u'account': u'GAVHYAXKLSOTMYRWMQWKDGQNKROFETYW4OHKPRV4HUQG3QPGESOFPQOA', u'created_at': u'2018-08-10T13:16:20Z', u'funder': u'GDJHGNGELXCNMIW6PRGP4E5VDG22TCVRCJ45U4X2VD6SYNJ57EJEZXY5', u'id': u'21449066680321', u'paging_token': u'21449066680321', u'source_account': u'GDJHGNGELXCNMIW6PRGP4E5VDG22TCVRCJ45U4X2VD6SYNJ57EJEZXY5', u'starting_balance': u'30.0000000', u'transaction_hash': u'69e97fc670c5cdc9b26d1800881bbb914ee4902e840a843fcd34c1b5326a5f32', u'type': u'create_account', ...}, {u'_links': {u'effects': {u'href': u'http://localhost:8888/operations/21457656614913/effects'}, u'precedes': {u'href': u'http://localhost:8888/effects?order=asc&cursor=21457656614913'}, u'self': {u'href': u'http://localhost:8888/operations/21457656614913'}, u'succeeds': {u'href': u'http://localhost:8888/effects?order=desc&cursor=21457656614913'}, u'transaction': {u'href': u'http://localhost:8888/transactions/43c21877e9c...183a0df80682bf381ed3478dbc06819f2f2ac6a2102d9923'}}, u'account': u'GAOYZVQFKWY2KEFF4I5ZMIXA4OGAPVFGWJBJRUPZZX2P7A6LUJXMPLO7', u'created_at': u'2018-08-10T13:16:30Z', u'funder': u'GDJHGNGELXCNMIW6PRGP4E5VDG22TCVRCJ45U4X2VD6SYNJ57EJEZXY5', u'id': u'21457656614913', u'paging_token': u'21457656614913', u'source_account': u'GDJHGNGELXCNMIW6PRGP4E5VDG22TCVRCJ45U4X2VD6SYNJ57EJEZXY5', u'starting_balance': u'30.0000000', u'transaction_hash': u'43c21877e9ce31c7183a0df80682bf381ed3478dbc06819f2f2ac6a2102d9923', u'type': u'create_account', ...}, {u'_links': {u'effects': {u'href': u'http://localhost:8888/operations/21466246549505/effects'}, u'precedes': {u'href': u'http://localhost:8888/effects?order=asc&cursor=21466246549505'}, u'self': {u'href': u'http://localhost:8888/operations/21466246549505'}, u'succeeds': {u'href': u'http://localhost:8888/effects?order=desc&cursor=21466246549505'}, u'transaction': {u'href': u'http://localhost:8888/transactions/4daf5be4fb2...905b910386461780635525e61c0d8688c01631cde239a5d0'}}, u'account': u'GDCKVLTNIEGGKC4AZPDGGHV7VIDOZ4HKVSN77T5KH5ETA4RL6IX5JFGG', u'created_at': u'2018-08-10T13:16:40Z', u'funder': u'GDJHGNGELXCNMIW6PRGP4E5VDG22TCVRCJ45U4X2VD6SYNJ57EJEZXY5', u'id': u'21466246549505', u'paging_token': u'21466246549505', u'source_account': u'GDJHGNGELXCNMIW6PRGP4E5VDG22TCVRCJ45U4X2VD6SYNJ57EJEZXY5', u'starting_balance': u'30.0000000', u'transaction_hash': u'4daf5be4fb2f4208905b910386461780635525e61c0d8688c01631cde239a5d0', u'type': u'create_account', ...}, {u'_links': {u'effects': {u'href': u'http://localhost:8888/operations/21474836484097/effects'}, u'precedes': {u'href': u'http://localhost:8888/effects?order=asc&cursor=21474836484097'}, u'self': {u'href': u'http://localhost:8888/operations/21474836484097'}, u'succeeds': {u'href': u'http://localhost:8888/effects?order=desc&cursor=21474836484097'}, u'transaction': {u'href': u'http://localhost:8888/transactions/a9cf184c562...24e8f050f24f1e463b12203222e87a01578fda9c1b2d0bed'}}, u'account': u'GAT73BUB3WJDW4D5VTTKZ57K34RYODVDPZRPXBJQ6EZP7HH52USS7EGY', u'created_at': u'2018-08-10T13:16:50Z', u'funder': u'GDJHGNGELXCNMIW6PRGP4E5VDG22TCVRCJ45U4X2VD6SYNJ57EJEZXY5', u'id': u'21474836484097', u'paging_token': u'21474836484097', u'source_account': u'GDJHGNGELXCNMIW6PRGP4E5VDG22TCVRCJ45U4X2VD6SYNJ57EJEZXY5', u'starting_balance': u'30.0000000', u'transaction_hash': u'a9cf184c5628b0f824e8f050f24f1e463b12203222e87a01578fda9c1b2d0bed', u'type': u'create_account', ...}]}"
p235
sS'records'
p236
S"[{u'_links': {u'effects': {u'href': u'http://localhost:8888/operations/1129576402945/effects'}, u'precedes': {u'href': u'http://localhost:8888/effects?order=asc&cursor=1129576402945'}, u'self': {u'href': u'http://localhost:8888/operations/1129576402945'}, u'succeeds': {u'href': u'http://localhost:8888/effects?order=desc&cursor=1129576402945'}, u'transaction': {u'href': u'http://localhost:8888/transactions/b207bf08568...be72ef09d04c7b2ef4b940237dbc5784b6bf4c00c395d467'}}, u'account': u'GB3IFCOI2SUQBQPZ3TM4BPZIDWQP6EI22LG53XBL5IQSTY5HULHTAWNH', u'created_at': u'2018-08-10T03:48:13Z', u'funder': u'GDJHGNGELXCNMIW6PRGP4E5VDG22TCVRCJ45U4X2VD6SYNJ57EJEZXY5', u'id': u'1129576402945', u'paging_token': u'1129576402945', u'source_account': u'GDJHGNGELXCNMIW6PRGP4E5VDG22TCVRCJ45U4X2VD6SYNJ57EJEZXY5', u'starting_balance': u'30.0000000', u'transaction_hash': u'b207bf0856840bdebe72ef09d04c7b2ef4b940237dbc5784b6bf4c00c395d467', u'type': u'create_account', ...}, {u'_links': {u'effects': {u'href': u'http://localhost:8888/operations/21406117007361/effects'}, u'precedes': {u'href': u'http://localhost:8888/effects?order=asc&cursor=21406117007361'}, u'self': {u'href': u'http://localhost:8888/operations/21406117007361'}, u'succeeds': {u'href': u'http://localhost:8888/effects?order=desc&cursor=21406117007361'}, u'transaction': {u'href': u'http://localhost:8888/transactions/ebc743855db...1b81b10ae259a462456ea5eca003d6fca43c885b3d7514e5'}}, u'account': u'GDXNGRDZX3P3BWMNTEBM5ZSQQOOIQOO5RPQDIRXOBLQRJRBEOAWZCTPA', u'created_at': u'2018-08-10T13:15:29Z', u'funder': u'GDJHGNGELXCNMIW6PRGP4E5VDG22TCVRCJ45U4X2VD6SYNJ57EJEZXY5', u'id': u'21406117007361', u'paging_token': u'21406117007361', u'source_account': u'GDJHGNGELXCNMIW6PRGP4E5VDG22TCVRCJ45U4X2VD6SYNJ57EJEZXY5', u'starting_balance': u'30.0000000', u'transaction_hash': u'ebc743855db20eec1b81b10ae259a462456ea5eca003d6fca43c885b3d7514e5', u'type': u'create_account', ...}, {u'_links': {u'effects': {u'href': u'http://localhost:8888/operations/21414706941953/effects'}, u'precedes': {u'href': u'http://localhost:8888/effects?order=asc&cursor=21414706941953'}, u'self': {u'href': u'http://localhost:8888/operations/21414706941953'}, u'succeeds': {u'href': u'http://localhost:8888/effects?order=desc&cursor=21414706941953'}, u'transaction': {u'href': u'http://localhost:8888/transactions/77aaf85245e...b1c361b5be1e08f8ed2ff03d2b029cf1be4765fbfcd3f044'}}, u'account': u'GAPGOOP2XL6NKP3BU2WY6N7JLBFY2ECWCSCBHDT73CBE3C2J2OGXNNRZ', u'created_at': u'2018-08-10T13:15:39Z', u'funder': u'GDJHGNGELXCNMIW6PRGP4E5VDG22TCVRCJ45U4X2VD6SYNJ57EJEZXY5', u'id': u'21414706941953', u'paging_token': u'21414706941953', u'source_account': u'GDJHGNGELXCNMIW6PRGP4E5VDG22TCVRCJ45U4X2VD6SYNJ57EJEZXY5', u'starting_balance': u'30.0000000', u'transaction_hash': u'77aaf85245efc40bb1c361b5be1e08f8ed2ff03d2b029cf1be4765fbfcd3f044', u'type': u'create_account', ...}, {u'_links': {u'effects': {u'href': u'http://localhost:8888/operations/21423296876545/effects'}, u'precedes': {u'href': u'http://localhost:8888/effects?order=asc&cursor=21423296876545'}, u'self': {u'href': u'http://localhost:8888/operations/21423296876545'}, u'succeeds': {u'href': u'http://localhost:8888/effects?order=desc&cursor=21423296876545'}, u'transaction': {u'href': u'http://localhost:8888/transactions/95c5431f902...91e6455b3557a752a2d9ec2898301fcc4fa505847dfcb5bb'}}, u'account': u'GBWH3NCA65E2E5OZ7R5V3UVOEU6IQSJR42CRDTCT52M3M3RSURGWPCWL', u'created_at': u'2018-08-10T13:15:49Z', u'funder': u'GDJHGNGELXCNMIW6PRGP4E5VDG22TCVRCJ45U4X2VD6SYNJ57EJEZXY5', u'id': u'21423296876545', u'paging_token': u'21423296876545', u'source_account': u'GDJHGNGELXCNMIW6PRGP4E5VDG22TCVRCJ45U4X2VD6SYNJ57EJEZXY5', u'starting_balance': u'30.0000000', u'transaction_hash': u'95c5431f902d602b91e6455b3557a752a2d9ec2898301fcc4fa505847dfcb5bb', u'type': u'create_account', ...}, {u'_links': {u'effects': {u'href': u'http://localhost:8888/operations/21431886811137/effects'}, u'precedes': {u'href': u'http://localhost:8888/effects?order=asc&cursor=21431886811137'}, u'self': {u'href': u'http://localhost:8888/operations/21431886811137'}, u'succeeds': {u'href': u'http://localhost:8888/effects?order=desc&cursor=21431886811137'}, u'transaction': {u'href': u'http://localhost:8888/transactions/15e1ce62a41...00bc87a6be19826dd81de0167ae894c3b536fdc75a3a8edd'}}, u'account': u'GDVW4GWBXP45VX5JQX3GKBLOERVT35I3FC6XFZR75IUGMXJFEKSGD2OJ', u'created_at': u'2018-08-10T13:16:00Z', u'funder': u'GDJHGNGELXCNMIW6PRGP4E5VDG22TCVRCJ45U4X2VD6SYNJ57EJEZXY5', u'id': u'21431886811137', u'paging_token': u'21431886811137', u'source_account': u'GDJHGNGELXCNMIW6PRGP4E5VDG22TCVRCJ45U4X2VD6SYNJ57EJEZXY5', u'starting_balance': u'30.0000000', u'transaction_hash': u'15e1ce62a41b8e8600bc87a6be19826dd81de0167ae894c3b536fdc75a3a8edd', u'type': u'create_account', ...}, {u'_links': {u'effects': {u'href': u'http://localhost:8888/operations/21440476745729/effects'}, u'precedes': {u'href': u'http://localhost:8888/effects?order=asc&cursor=21440476745729'}, u'self': {u'href': u'http://localhost:8888/operations/21440476745729'}, u'succeeds': {u'href': u'http://localhost:8888/effects?order=desc&cursor=21440476745729'}, u'transaction': {u'href': u'http://localhost:8888/transactions/5a9cba44d9a...0b12915828cdaa4c45e4e9f9d290fd19d9dc7895c615092a'}}, u'account': u'GD4IXRUFCI3PLYZWEIND5G6FXFYD4DGFY52ISLBNNBV4L4ANK4AXRJEW', u'created_at': u'2018-08-10T13:16:10Z', u'funder': u'GDJHGNGELXCNMIW6PRGP4E5VDG22TCVRCJ45U4X2VD6SYNJ57EJEZXY5', u'id': u'21440476745729', u'paging_token': u'21440476745729', u'source_account': u'GDJHGNGELXCNMIW6PRGP4E5VDG22TCVRCJ45U4X2VD6SYNJ57EJEZXY5', u'starting_balance': u'30.0000000', u'transaction_hash': u'5a9cba44d9ad4e560b12915828cdaa4c45e4e9f9d290fd19d9dc7895c615092a', u'type': u'create_account', ...}, {u'_links': {u'effects': {u'href': u'http://localhost:8888/operations/21449066680321/effects'}, u'precedes': {u'href': u'http://localhost:8888/effects?order=asc&cursor=21449066680321'}, u'self': {u'href': u'http://localhost:8888/operations/21449066680321'}, u'succeeds': {u'href': u'http://localhost:8888/effects?order=desc&cursor=21449066680321'}, u'transaction': {u'href': u'http://localhost:8888/transactions/69e97fc670c...b26d1800881bbb914ee4902e840a843fcd34c1b5326a5f32'}}, u'account': u'GAVHYAXKLSOTMYRWMQWKDGQNKROFETYW4OHKPRV4HUQG3QPGESOFPQOA', u'created_at': u'2018-08-10T13:16:20Z', u'funder': u'GDJHGNGELXCNMIW6PRGP4E5VDG22TCVRCJ45U4X2VD6SYNJ57EJEZXY5', u'id': u'21449066680321', u'paging_token': u'21449066680321', u'source_account': u'GDJHGNGELXCNMIW6PRGP4E5VDG22TCVRCJ45U4X2VD6SYNJ57EJEZXY5', u'starting_balance': u'30.0000000', u'transaction_hash': u'69e97fc670c5cdc9b26d1800881bbb914ee4902e840a843fcd34c1b5326a5f32', u'type': u'create_account', ...}, {u'_links': {u'effects': {u'href': u'http://localhost:8888/operations/21457656614913/effects'}, u'precedes': {u'href': u'http://localhost:8888/effects?order=asc&cursor=21457656614913'}, u'self': {u'href': u'http://localhost:8888/operations/21457656614913'}, u'succeeds': {u'href': u'http://localhost:8888/effects?order=desc&cursor=21457656614913'}, u'transaction': {u'href': u'http://localhost:8888/transactions/43c21877e9c...183a0df80682bf381ed3478dbc06819f2f2ac6a2102d9923'}}, u'account': u'GAOYZVQFKWY2KEFF4I5ZMIXA4OGAPVFGWJBJRUPZZX2P7A6LUJXMPLO7', u'created_at': u'2018-08-10T13:16:30Z', u'funder': u'GDJHGNGELXCNMIW6PRGP4E5VDG22TCVRCJ45U4X2VD6SYNJ57EJEZXY5', u'id': u'21457656614913', u'paging_token': u'21457656614913', u'source_account': u'GDJHGNGELXCNMIW6PRGP4E5VDG22TCVRCJ45U4X2VD6SYNJ57EJEZXY5', u'starting_balance': u'30.0000000', u'transaction_hash': u'43c21877e9ce31c7183a0df80682bf381ed3478dbc06819f2f2ac6a2102d9923', u'type': u'create_account', ...}, {u'_links': {u'effects': {u'href': u'http://localhost:8888/operations/21466246549505/effects'}, u'precedes': {u'href': u'http://localhost:8888/effects?order=asc&cursor=21466246549505'}, u'self': {u'href': u'http://localhost:8888/operations/21466246549505'}, u'succeeds': {u'href': u'http://localhost:8888/effects?order=desc&cursor=21466246549505'}, u'transaction': {u'href': u'http://localhost:8888/transactions/4daf5be4fb2...905b910386461780635525e61c0d8688c01631cde239a5d0'}}, u'account': u'GDCKVLTNIEGGKC4AZPDGGHV7VIDOZ4HKVSN77T5KH5ETA4RL6IX5JFGG', u'created_at': u'2018-08-10T13:16:40Z', u'funder': u'GDJHGNGELXCNMIW6PRGP4E5VDG22TCVRCJ45U4X2VD6SYNJ57EJEZXY5', u'id': u'21466246549505', u'paging_token': u'21466246549505', u'source_account': u'GDJHGNGELXCNMIW6PRGP4E5VDG22TCVRCJ45U4X2VD6SYNJ57EJEZXY5', u'starting_balance': u'30.0000000', u'transaction_hash': u'4daf5be4fb2f4208905b910386461780635525e61c0d8688c01631cde239a5d0', u'type': u'create_account', ...}, {u'_links': {u'effects': {u'href': u'http://localhost:8888/operations/21474836484097/effects'}, u'precedes': {u'href': u'http://localhost:8888/effects?order=asc&cursor=21474836484097'}, u'self': {u'href': u'http://localhost:8888/operations/21474836484097'}, u'succeeds': {u'href': u'http://localhost:8888/effects?order=desc&cursor=21474836484097'}, u'transaction': {u'href': u'http://localhost:8888/transactions/a9cf184c562...24e8f050f24f1e463b12203222e87a01578fda9c1b2d0bed'}}, u'account': u'GAT73BUB3WJDW4D5VTTKZ57K34RYODVDPZRPXBJQ6EZP7HH52USS7EGY', u'created_at': u'2018-08-10T13:16:50Z', u'funder': u'GDJHGNGELXCNMIW6PRGP4E5VDG22TCVRCJ45U4X2VD6SYNJ57EJEZXY5', u'id': u'21474836484097', u'paging_token': u'21474836484097', u'source_account': u'GDJHGNGELXCNMIW6PRGP4E5VDG22TCVRCJ45U4X2VD6SYNJ57EJEZXY5', u'starting_balance': u'30.0000000', u'transaction_hash': u'a9cf184c5628b0f824e8f050f24f1e463b12203222e87a01578fda9c1b2d0bed', u'type': u'create_account', ...}]"
p237
sS'created_at'
p238
S"u'2018-08-10T03:48:13Z'"
p239
sS'validity'
p240
S'True'
p241
sg228
S"{u'_embedded': {u'records': [{u'_links': {u'effects': {u'href': u'http://localhost:8888/operations/1129576402945/effects'}, u'precedes': {u'href': u'http://localhost:8888/effects?order=asc&cursor=1129576402945'}, u'self': {u'href': u'http://localhost:8888/operations/1129576402945'}, u'succeeds': {u'href': u'http://localhost:8888/effects?order=desc&cursor=1129576402945'}, u'transaction': {u'href': u'http://localhost:8888/transactions/b207bf08568...be72ef09d04c7b2ef4b940237dbc5784b6bf4c00c395d467'}}, u'account': u'GB3IFCOI2SUQBQPZ3TM4BPZIDWQP6EI22LG53XBL5IQSTY5HULHTAWNH', u'created_at': u'2018-08-10T03:48:13Z', u'funder': u'GDJHGNGELXCNMIW6PRGP4E5VDG22TCVRCJ45U4X2VD6SYNJ57EJEZXY5', u'id': u'1129576402945', u'paging_token': u'1129576402945', u'source_account': u'GDJHGNGELXCNMIW6PRGP4E5VDG22TCVRCJ45U4X2VD6SYNJ57EJEZXY5', u'starting_balance': u'30.0000000', u'transaction_hash': u'b207bf0856840bdebe72ef09d04c7b2ef4b940237dbc5784b6bf4c00c395d467', u'type': u'create_account', ...}, {u'_links': {u'effects': {u'href': u'http://localhost:8888/operations/21406117007361/effects'}, u'precedes': {u'href': u'http://localhost:8888/effects?order=asc&cursor=21406117007361'}, u'self': {u'href': u'http://localhost:8888/operations/21406117007361'}, u'succeeds': {u'href': u'http://localhost:8888/effects?order=desc&cursor=21406117007361'}, u'transaction': {u'href': u'http://localhost:8888/transactions/ebc743855db...1b81b10ae259a462456ea5eca003d6fca43c885b3d7514e5'}}, u'account': u'GDXNGRDZX3P3BWMNTEBM5ZSQQOOIQOO5RPQDIRXOBLQRJRBEOAWZCTPA', u'created_at': u'2018-08-10T13:15:29Z', u'funder': u'GDJHGNGELXCNMIW6PRGP4E5VDG22TCVRCJ45U4X2VD6SYNJ57EJEZXY5', u'id': u'21406117007361', u'paging_token': u'21406117007361', u'source_account': u'GDJHGNGELXCNMIW6PRGP4E5VDG22TCVRCJ45U4X2VD6SYNJ57EJEZXY5', u'starting_balance': u'30.0000000', u'transaction_hash': u'ebc743855db20eec1b81b10ae259a462456ea5eca003d6fca43c885b3d7514e5', u'type': u'create_account', ...}, {u'_links': {u'effects': {u'href': u'http://localhost:8888/operations/21414706941953/effects'}, u'precedes': {u'href': u'http://localhost:8888/effects?order=asc&cursor=21414706941953'}, u'self': {u'href': u'http://localhost:8888/operations/21414706941953'}, u'succeeds': {u'href': u'http://localhost:8888/effects?order=desc&cursor=21414706941953'}, u'transaction': {u'href': u'http://localhost:8888/transactions/77aaf85245e...b1c361b5be1e08f8ed2ff03d2b029cf1be4765fbfcd3f044'}}, u'account': u'GAPGOOP2XL6NKP3BU2WY6N7JLBFY2ECWCSCBHDT73CBE3C2J2OGXNNRZ', u'created_at': u'2018-08-10T13:15:39Z', u'funder': u'GDJHGNGELXCNMIW6PRGP4E5VDG22TCVRCJ45U4X2VD6SYNJ57EJEZXY5', u'id': u'21414706941953', u'paging_token': u'21414706941953', u'source_account': u'GDJHGNGELXCNMIW6PRGP4E5VDG22TCVRCJ45U4X2VD6SYNJ57EJEZXY5', u'starting_balance': u'30.0000000', u'transaction_hash': u'77aaf85245efc40bb1c361b5be1e08f8ed2ff03d2b029cf1be4765fbfcd3f044', u'type': u'create_account', ...}, {u'_links': {u'effects': {u'href': u'http://localhost:8888/operations/21423296876545/effects'}, u'precedes': {u'href': u'http://localhost:8888/effects?order=asc&cursor=21423296876545'}, u'self': {u'href': u'http://localhost:8888/operations/21423296876545'}, u'succeeds': {u'href': u'http://localhost:8888/effects?order=desc&cursor=21423296876545'}, u'transaction': {u'href': u'http://localhost:8888/transactions/95c5431f902...91e6455b3557a752a2d9ec2898301fcc4fa505847dfcb5bb'}}, u'account': u'GBWH3NCA65E2E5OZ7R5V3UVOEU6IQSJR42CRDTCT52M3M3RSURGWPCWL', u'created_at': u'2018-08-10T13:15:49Z', u'funder': u'GDJHGNGELXCNMIW6PRGP4E5VDG22TCVRCJ45U4X2VD6SYNJ57EJEZXY5', u'id': u'21423296876545', u'paging_token': u'21423296876545', u'source_account': u'GDJHGNGELXCNMIW6PRGP4E5VDG22TCVRCJ45U4X2VD6SYNJ57EJEZXY5', u'starting_balance': u'30.0000000', u'transaction_hash': u'95c5431f902d602b91e6455b3557a752a2d9ec2898301fcc4fa505847dfcb5bb', u'type': u'create_account', ...}, {u'_links': {u'effects': {u'href': u'http://localhost:8888/operations/21431886811137/effects'}, u'precedes': {u'href': u'http://localhost:8888/effects?order=asc&cursor=21431886811137'}, u'self': {u'href': u'http://localhost:8888/operations/21431886811137'}, u'succeeds': {u'href': u'http://localhost:8888/effects?order=desc&cursor=21431886811137'}, u'transaction': {u'href': u'http://localhost:8888/transactions/15e1ce62a41...00bc87a6be19826dd81de0167ae894c3b536fdc75a3a8edd'}}, u'account': u'GDVW4GWBXP45VX5JQX3GKBLOERVT35I3FC6XFZR75IUGMXJFEKSGD2OJ', u'created_at': u'2018-08-10T13:16:00Z', u'funder': u'GDJHGNGELXCNMIW6PRGP4E5VDG22TCVRCJ45U4X2VD6SYNJ57EJEZXY5', u'id': u'21431886811137', u'paging_token': u'21431886811137', u'source_account': u'GDJHGNGELXCNMIW6PRGP4E5VDG22TCVRCJ45U4X2VD6SYNJ57EJEZXY5', u'starting_balance': u'30.0000000', u'transaction_hash': u'15e1ce62a41b8e8600bc87a6be19826dd81de0167ae894c3b536fdc75a3a8edd', u'type': u'create_account', ...}, {u'_links': {u'effects': {u'href': u'http://localhost:8888/operations/21440476745729/effects'}, u'precedes': {u'href': u'http://localhost:8888/effects?order=asc&cursor=21440476745729'}, u'self': {u'href': u'http://localhost:8888/operations/21440476745729'}, u'succeeds': {u'href': u'http://localhost:8888/effects?order=desc&cursor=21440476745729'}, u'transaction': {u'href': u'http://localhost:8888/transactions/5a9cba44d9a...0b12915828cdaa4c45e4e9f9d290fd19d9dc7895c615092a'}}, u'account': u'GD4IXRUFCI3PLYZWEIND5G6FXFYD4DGFY52ISLBNNBV4L4ANK4AXRJEW', u'created_at': u'2018-08-10T13:16:10Z', u'funder': u'GDJHGNGELXCNMIW6PRGP4E5VDG22TCVRCJ45U4X2VD6SYNJ57EJEZXY5', u'id': u'21440476745729', u'paging_token': u'21440476745729', u'source_account': u'GDJHGNGELXCNMIW6PRGP4E5VDG22TCVRCJ45U4X2VD6SYNJ57EJEZXY5', u'starting_balance': u'30.0000000', u'transaction_hash': u'5a9cba44d9ad4e560b12915828cdaa4c45e4e9f9d290fd19d9dc7895c615092a', u'type': u'create_account', ...}, {u'_links': {u'effects': {u'href': u'http://localhost:8888/operations/21449066680321/effects'}, u'precedes': {u'href': u'http://localhost:8888/effects?order=asc&cursor=21449066680321'}, u'self': {u'href': u'http://localhost:8888/operations/21449066680321'}, u'succeeds': {u'href': u'http://localhost:8888/effects?order=desc&cursor=21449066680321'}, u'transaction': {u'href': u'http://localhost:8888/transactions/69e97fc670c...b26d1800881bbb914ee4902e840a843fcd34c1b5326a5f32'}}, u'account': u'GAVHYAXKLSOTMYRWMQWKDGQNKROFETYW4OHKPRV4HUQG3QPGESOFPQOA', u'created_at': u'2018-08-10T13:16:20Z', u'funder': u'GDJHGNGELXCNMIW6PRGP4E5VDG22TCVRCJ45U4X2VD6SYNJ57EJEZXY5', u'id': u'21449066680321', u'paging_token': u'21449066680321', u'source_account': u'GDJHGNGELXCNMIW6PRGP4E5VDG22TCVRCJ45U4X2VD6SYNJ57EJEZXY5', u'starting_balance': u'30.0000000', u'transaction_hash': u'69e97fc670c5cdc9b26d1800881bbb914ee4902e840a843fcd34c1b5326a5f32', u'type': u'create_account', ...}, {u'_links': {u'effects': {u'href': u'http://localhost:8888/operations/21457656614913/effects'}, u'precedes': {u'href': u'http://localhost:8888/effects?order=asc&cursor=21457656614913'}, u'self': {u'href': u'http://localhost:8888/operations/21457656614913'}, u'succeeds': {u'href': u'http://localhost:8888/effects?order=desc&cursor=21457656614913'}, u'transaction': {u'href': u'http://localhost:8888/transactions/43c21877e9c...183a0df80682bf381ed3478dbc06819f2f2ac6a2102d9923'}}, u'account': u'GAOYZVQFKWY2KEFF4I5ZMIXA4OGAPVFGWJBJRUPZZX2P7A6LUJXMPLO7', u'created_at': u'2018-08-10T13:16:30Z', u'funder': u'GDJHGNGELXCNMIW6PRGP4E5VDG22TCVRCJ45U4X2VD6SYNJ57EJEZXY5', u'id': u'21457656614913', u'paging_token': u'21457656614913', u'source_account': u'GDJHGNGELXCNMIW6PRGP4E5VDG22TCVRCJ45U4X2VD6SYNJ57EJEZXY5', u'starting_balance': u'30.0000000', u'transaction_hash': u'43c21877e9ce31c7183a0df80682bf381ed3478dbc06819f2f2ac6a2102d9923', u'type': u'create_account', ...}, {u'_links': {u'effects': {u'href': u'http://localhost:8888/operations/21466246549505/effects'}, u'precedes': {u'href': u'http://localhost:8888/effects?order=asc&cursor=21466246549505'}, u'self': {u'href': u'http://localhost:8888/operations/21466246549505'}, u'succeeds': {u'href': u'http://localhost:8888/effects?order=desc&cursor=21466246549505'}, u'transaction': {u'href': u'http://localhost:8888/transactions/4daf5be4fb2...905b910386461780635525e61c0d8688c01631cde239a5d0'}}, u'account': u'GDCKVLTNIEGGKC4AZPDGGHV7VIDOZ4HKVSN77T5KH5ETA4RL6IX5JFGG', u'created_at': u'2018-08-10T13:16:40Z', u'funder': u'GDJHGNGELXCNMIW6PRGP4E5VDG22TCVRCJ45U4X2VD6SYNJ57EJEZXY5', u'id': u'21466246549505', u'paging_token': u'21466246549505', u'source_account': u'GDJHGNGELXCNMIW6PRGP4E5VDG22TCVRCJ45U4X2VD6SYNJ57EJEZXY5', u'starting_balance': u'30.0000000', u'transaction_hash': u'4daf5be4fb2f4208905b910386461780635525e61c0d8688c01631cde239a5d0', u'type': u'create_account', ...}, {u'_links': {u'effects': {u'href': u'http://localhost:8888/operations/21474836484097/effects'}, u'precedes': {u'href': u'http://localhost:8888/effects?order=asc&cursor=21474836484097'}, u'self': {u'href': u'http://localhost:8888/operations/21474836484097'}, u'succeeds': {u'href': u'http://localhost:8888/effects?order=desc&cursor=21474836484097'}, u'transaction': {u'href': u'http://localhost:8888/transactions/a9cf184c562...24e8f050f24f1e463b12203222e87a01578fda9c1b2d0bed'}}, u'account': u'GAT73BUB3WJDW4D5VTTKZ57K34RYODVDPZRPXBJQ6EZP7HH52USS7EGY', u'created_at': u'2018-08-10T13:16:50Z', u'funder': u'GDJHGNGELXCNMIW6PRGP4E5VDG22TCVRCJ45U4X2VD6SYNJ57EJEZXY5', u'id': u'21474836484097', u'paging_token': u'21474836484097', u'source_account': u'GDJHGNGELXCNMIW6PRGP4E5VDG22TCVRCJ45U4X2VD6SYNJ57EJEZXY5', u'starting_balance': u'30.0000000', u'transaction_hash': u'a9cf184c5628b0f824e8f050f24f1e463b12203222e87a01578fda9c1b2d0bed', u'type': u'create_account', ...}]}, u'_links': {u'next': {u'href': u'http://localhost:8888/accounts/GDJHGNGELXCNMIW...ayments?cursor=21474836484097&limit=10&order=asc'}, u'prev': {u'href': u'http://localhost:8888/accounts/GDJHGNGELXCNMIW...ayments?cursor=1129576402945&limit=10&order=desc'}, u'self': {u'href': u'http://localhost:8888/accounts/GDJHGNGELXCNMIW...YNJ57EJEZXY5/payments?cursor=&limit=10&order=asc'}}}"
p242
sS'record'
p243
S"{u'_links': {u'effects': {u'href': u'http://localhost:8888/operations/1129576402945/effects'}, u'precedes': {u'href': u'http://localhost:8888/effects?order=asc&cursor=1129576402945'}, u'self': {u'href': u'http://localhost:8888/operations/1129576402945'}, u'succeeds': {u'href': u'http://localhost:8888/effects?order=desc&cursor=1129576402945'}, u'transaction': {u'href': u'http://localhost:8888/transactions/b207bf08568...be72ef09d04c7b2ef4b940237dbc5784b6bf4c00c395d467'}}, u'account': u'GB3IFCOI2SUQBQPZ3TM4BPZIDWQP6EI22LG53XBL5IQSTY5HULHTAWNH', u'created_at': u'2018-08-10T03:48:13Z', u'funder': u'GDJHGNGELXCNMIW6PRGP4E5VDG22TCVRCJ45U4X2VD6SYNJ57EJEZXY5', u'id': u'1129576402945', u'paging_token': u'1129576402945', u'source_account': u'GDJHGNGELXCNMIW6PRGP4E5VDG22TCVRCJ45U4X2VD6SYNJ57EJEZXY5', u'starting_balance': u'30.0000000', u'transaction_hash': u'b207bf0856840bdebe72ef09d04c7b2ef4b940237dbc5784b6bf4c00c395d467', u'type': u'create_account', ...}"
p244
sS'result'
p245
S"{'id': 'GDJHGNGELXCNMIW6PRGP4E5VDG22TCVRCJ45U4X2VD6SYNJ57EJEZXY5', 'transactions': []}"
p246
sS'type'
p247
S"u'create_account'"
p248
sS'id'
p249
S"u'1129576402945'"
p250
sssS'traceback'
p251
S'Traceback (most recent call last):\n  File "/home/cc5985/web2py/web2py/gluon/restricted.py", line 219, in restricted\n    exec(ccode, environment)\n  File "/home/cc5985/web2py/web2py/applications/app1/controllers/api.py", line 122, in <module>\n  File "/home/cc5985/web2py/web2py/gluon/globals.py", line 420, in <lambda>\n    self._caller = lambda f: f()\n  File "/home/cc5985/web2py/web2py/applications/app1/controllers/api.py", line 12, in call\n    return service()\n  File "/home/cc5985/web2py/web2py/gluon/tools.py", line 5473, in __call__\n    return self.serve_run(request.args[1:])\n  File "/home/cc5985/web2py/web2py/gluon/tools.py", line 5090, in serve_run\n    *args[1:], **dict(request.vars)))\n  File "/home/cc5985/web2py/web2py/gluon/tools.py", line 5506, in call_service_function\n    return f(*a, **b)\n  File "/home/cc5985/web2py/web2py/applications/app1/controllers/api.py", line 109, in transactions\n    hash=record[\'hash\']\nKeyError: \'hash\'\n'
p252
s.