(dp1
S'output'
p2
S"<class 'requests.exceptions.MissingSchema'> Invalid URL 'test/accounts/GCHZDZXYLZ76XADS7735LK3OJUFZ2TBSXAR23YXKXCXXHUEEVT5C37PY': No schema supplied. Perhaps you meant http://test/accounts/GCHZDZXYLZ76XADS7735LK3OJUFZ2TBSXAR23YXKXCXXHUEEVT5C37PY?"
p3
sS'layer'
p4
S'/home/cc5985/web2py/web2py/applications/app1/controllers/api.py'
p5
sS'code'
p6
S'<code object <module> at 0x7fda8035e0b0, file "/home/cc5985/web2py/web2py/applications/app1/controllers/api.py", line 1>'
p7
sS'snapshot'
p8
(dp9
S'exception'
p10
(dp11
S'__module__'
p12
S"'requests.exceptions'"
p13
sS'__getslice__'
p14
S"<method-wrapper '__getslice__' of MissingSchema object>"
p15
sS'__str__'
p16
S"<method-wrapper '__str__' of MissingSchema object>"
p17
sS'__reduce__'
p18
S'<built-in method __reduce__ of MissingSchema object>'
p19
sS'__dict__'
p20
S"{'request': None, 'response': None}"
p21
sS'__sizeof__'
p22
S'<built-in method __sizeof__ of MissingSchema object>'
p23
sS'__weakref__'
p24
S'None'
p25
sS'message'
p26
S'"Invalid URL \'test/accounts/GCHZDZXYLZ76XADS7735L...LZ76XADS7735LK3OJUFZ2TBSXAR23YXKXCXXHUEEVT5C37PY?"'
p27
sS'__init__'
p28
S'<bound method MissingSchema.__init__ of MissingS...XADS7735LK3OJUFZ2TBSXAR23YXKXCXXHUEEVT5C37PY?",)>'
p29
sS'__setattr__'
p30
S"<method-wrapper '__setattr__' of MissingSchema object>"
p31
sS'__reduce_ex__'
p32
S'<built-in method __reduce_ex__ of MissingSchema object>'
p33
sS'__new__'
p34
S'<built-in method __new__ of type object>'
p35
sS'errno'
p36
S'None'
p37
sS'__format__'
p38
S'<built-in method __format__ of MissingSchema object>'
p39
sS'__class__'
p40
S"<class 'requests.exceptions.MissingSchema'>"
p41
sS'filename'
p42
S'None'
p43
sS'__doc__'
p44
S"'The URL schema (e.g. http or https) is missing.'"
p45
sS'__getitem__'
p46
S"<method-wrapper '__getitem__' of MissingSchema object>"
p47
sS'__setstate__'
p48
S'<built-in method __setstate__ of MissingSchema object>'
p49
sS'__getattribute__'
p50
S"<method-wrapper '__getattribute__' of MissingSchema object>"
p51
sS'args'
p52
S'("Invalid URL \'test/accounts/GCHZDZXYLZ76XADS7735L...LZ76XADS7735LK3OJUFZ2TBSXAR23YXKXCXXHUEEVT5C37PY?",)'
p53
sS'__subclasshook__'
p54
S'<built-in method __subclasshook__ of type object>'
p55
sS'response'
p56
S'None'
p57
sS'__unicode__'
p58
S'<built-in method __unicode__ of MissingSchema object>'
p59
sS'request'
p60
S'None'
p61
sS'strerror'
p62
S'None'
p63
sS'__delattr__'
p64
S"<method-wrapper '__delattr__' of MissingSchema object>"
p65
sS'__repr__'
p66
S"<method-wrapper '__repr__' of MissingSchema object>"
p67
sS'__hash__'
p68
S"<method-wrapper '__hash__' of MissingSchema object>"
p69
ssS'evalue'
p70
S"Invalid URL 'test/accounts/GCHZDZXYLZ76XADS7735LK3OJUFZ2TBSXAR23YXKXCXXHUEEVT5C37PY': No schema supplied. Perhaps you meant http://test/accounts/GCHZDZXYLZ76XADS7735LK3OJUFZ2TBSXAR23YXKXCXXHUEEVT5C37PY?"
p71
sg60
cgluon.html
XML_unpickle
p72
(S'stu\x00\x00<div><table><tr><td style="font-weight:bold;vertical-align:top;">ajax</td><td style="vertical-align:top;">:</td><td><div>False</div></td></tr><tr><td style="font-weight:bold;vertical-align:top;">application</td><td style="vertical-align:top;">:</td><td><div>app1</div></td></tr><tr><td style="font-weight:bold;vertical-align:top;">args</td><td style="vertical-align:top;">:</td><td><div><table><tr><td><div>run</div></td></tr><tr><td><div>balances</div></td></tr></table></div></td></tr><tr><td style="font-weight:bold;vertical-align:top;">cid</td><td style="vertical-align:top;">:</td><td><div>None</div></td></tr><tr><td style="font-weight:bold;vertical-align:top;">client</td><td style="vertical-align:top;">:</td><td><div>127.0.0.1</div></td></tr><tr><td style="font-weight:bold;vertical-align:top;">controller</td><td style="vertical-align:top;">:</td><td><div>api</div></td></tr><tr><td style="font-weight:bold;vertical-align:top;">cookies</td><td style="vertical-align:top;">:</td><td><div><table><tr><td style="font-weight:bold;vertical-align:top;">PGADMIN_LANGUAGE</td><td style="vertical-align:top;">:</td><td><div>en<table><tr><td style="font-weight:bold;vertical-align:top;">comment</td><td style="vertical-align:top;">:</td><td><div></div></td></tr><tr><td style="font-weight:bold;vertical-align:top;">domain</td><td style="vertical-align:top;">:</td><td><div></div></td></tr><tr><td style="font-weight:bold;vertical-align:top;">expires</td><td style="vertical-align:top;">:</td><td><div></div></td></tr><tr><td style="font-weight:bold;vertical-align:top;">httponly</td><td style="vertical-align:top;">:</td><td><div></div></td></tr><tr><td style="font-weight:bold;vertical-align:top;">max-age</td><td style="vertical-align:top;">:</td><td><div></div></td></tr><tr><td style="font-weight:bold;vertical-align:top;">path</td><td style="vertical-align:top;">:</td><td><div></div></td></tr><tr><td style="font-weight:bold;vertical-align:top;">secure</td><td style="vertical-align:top;">:</td><td><div></div></td></tr><tr><td style="font-weight:bold;vertical-align:top;">version</td><td style="vertical-align:top;">:</td><td><div></div></td></tr></table></div></td></tr><tr><td style="font-weight:bold;vertical-align:top;">adminLanguage</td><td style="vertical-align:top;">:</td><td><div>zh<table><tr><td style="font-weight:bold;vertical-align:top;">comment</td><td style="vertical-align:top;">:</td><td><div></div></td></tr><tr><td style="font-weight:bold;vertical-align:top;">domain</td><td style="vertical-align:top;">:</td><td><div></div></td></tr><tr><td style="font-weight:bold;vertical-align:top;">expires</td><td style="vertical-align:top;">:</td><td><div></div></td></tr><tr><td style="font-weight:bold;vertical-align:top;">httponly</td><td style="vertical-align:top;">:</td><td><div></div></td></tr><tr><td style="font-weight:bold;vertical-align:top;">max-age</td><td style="vertical-align:top;">:</td><td><div></div></td></tr><tr><td style="font-weight:bold;vertical-align:top;">path</td><td style="vertical-align:top;">:</td><td><div></div></td></tr><tr><td style="font-weight:bold;vertical-align:top;">secure</td><td style="vertical-align:top;">:</td><td><div></div></td></tr><tr><td style="font-weight:bold;vertical-align:top;">version</td><td style="vertical-align:top;">:</td><td><div></div></td></tr></table></div></td></tr><tr><td style="font-weight:bold;vertical-align:top;">pga4_session</td><td style="vertical-align:top;">:</td><td><div>b17f8d6f-4f60-4c35-97a8-4231024d8610!NMc2rNqZ3v24RlWDyZ08z0LZ+iY=<table><tr><td style="font-weight:bold;vertical-align:top;">comment</td><td style="vertical-align:top;">:</td><td><div></div></td></tr><tr><td style="font-weight:bold;vertical-align:top;">domain</td><td style="vertical-align:top;">:</td><td><div></div></td></tr><tr><td style="font-weight:bold;vertical-align:top;">expires</td><td style="vertical-align:top;">:</td><td><div></div></td></tr><tr><td style="font-weight:bold;vertical-align:top;">httponly</td><td style="vertical-align:top;">:</td><td><div></div></td></tr><tr><td style="font-weight:bold;vertical-align:top;">max-age</td><td style="vertical-align:top;">:</td><td><div></div></td></tr><tr><td style="font-weight:bold;vertical-align:top;">path</td><td style="vertical-align:top;">:</td><td><div></div></td></tr><tr><td style="font-weight:bold;vertical-align:top;">secure</td><td style="vertical-align:top;">:</td><td><div></div></td></tr><tr><td style="font-weight:bold;vertical-align:top;">version</td><td style="vertical-align:top;">:</td><td><div></div></td></tr></table></div></td></tr><tr><td style="font-weight:bold;vertical-align:top;">session_id_admin</td><td style="vertical-align:top;">:</td><td><div>127.0.0.1-5e71cd66-3b7d-4c65-adc7-8ed76961285c<table><tr><td style="font-weight:bold;vertical-align:top;">comment</td><td style="vertical-align:top;">:</td><td><div></div></td></tr><tr><td style="font-weight:bold;vertical-align:top;">domain</td><td style="vertical-align:top;">:</td><td><div></div></td></tr><tr><td style="font-weight:bold;vertical-align:top;">expires</td><td style="vertical-align:top;">:</td><td><div></div></td></tr><tr><td style="font-weight:bold;vertical-align:top;">httponly</td><td style="vertical-align:top;">:</td><td><div></div></td></tr><tr><td style="font-weight:bold;vertical-align:top;">max-age</td><td style="vertical-align:top;">:</td><td><div></div></td></tr><tr><td style="font-weight:bold;vertical-align:top;">path</td><td style="vertical-align:top;">:</td><td><div></div></td></tr><tr><td style="font-weight:bold;vertical-align:top;">secure</td><td style="vertical-align:top;">:</td><td><div></div></td></tr><tr><td style="font-weight:bold;vertical-align:top;">version</td><td style="vertical-align:top;">:</td><td><div></div></td></tr></table></div></td></tr><tr><td style="font-weight:bold;vertical-align:top;">session_id_app1</td><td style="vertical-align:top;">:</td><td><div>127.0.0.1-5c1ed551-d0e0-4382-9b01-bf4efc48a769<table><tr><td style="font-weight:bold;vertical-align:top;">comment</td><td style="vertical-align:top;">:</td><td><div></div></td></tr><tr><td style="font-weight:bold;vertical-align:top;">domain</td><td style="vertical-align:top;">:</td><td><div></div></td></tr><tr><td style="font-weight:bold;vertical-align:top;">expires</td><td style="vertical-align:top;">:</td><td><div></div></td></tr><tr><td style="font-weight:bold;vertical-align:top;">httponly</td><td style="vertical-align:top;">:</td><td><div></div></td></tr><tr><td style="font-weight:bold;vertical-align:top;">max-age</td><td style="vertical-align:top;">:</td><td><div></div></td></tr><tr><td style="font-weight:bold;vertical-align:top;">path</td><td style="vertical-align:top;">:</td><td><div></div></td></tr><tr><td style="font-weight:bold;vertical-align:top;">secure</td><td style="vertical-align:top;">:</td><td><div></div></td></tr><tr><td style="font-weight:bold;vertical-align:top;">version</td><td style="vertical-align:top;">:</td><td><div></div></td></tr></table></div></td></tr><tr><td style="font-weight:bold;vertical-align:top;">session_id_hello</td><td style="vertical-align:top;">:</td><td><div>127.0.0.1-c670ab94-0430-4259-ad19-307c971103d5<table><tr><td style="font-weight:bold;vertical-align:top;">comment</td><td style="vertical-align:top;">:</td><td><div></div></td></tr><tr><td style="font-weight:bold;vertical-align:top;">domain</td><td style="vertical-align:top;">:</td><td><div></div></td></tr><tr><td style="font-weight:bold;vertical-align:top;">expires</td><td style="vertical-align:top;">:</td><td><div></div></td></tr><tr><td style="font-weight:bold;vertical-align:top;">httponly</td><td style="vertical-align:top;">:</td><td><div></div></td></tr><tr><td style="font-weight:bold;vertical-align:top;">max-age</td><td style="vertical-align:top;">:</td><td><div></div></td></tr><tr><td style="font-weight:bold;vertical-align:top;">path</td><td style="vertical-align:top;">:</td><td><div></div></td></tr><tr><td style="font-weight:bold;vertical-align:top;">secure</td><td style="vertical-align:top;">:</td><td><div></div></td></tr><tr><td style="font-weight:bold;vertical-align:top;">version</td><td style="vertical-align:top;">:</td><td><div></div></td></tr></table></div></td></tr><tr><td style="font-weight:bold;vertical-align:top;">session_id_images</td><td style="vertical-align:top;">:</td><td><div>127.0.0.1-96a1c6e9-4f42-40bf-8e2a-56582904dcad<table><tr><td style="font-weight:bold;vertical-align:top;">comment</td><td style="vertical-align:top;">:</td><td><div></div></td></tr><tr><td style="font-weight:bold;vertical-align:top;">domain</td><td style="vertical-align:top;">:</td><td><div></div></td></tr><tr><td style="font-weight:bold;vertical-align:top;">expires</td><td style="vertical-align:top;">:</td><td><div></div></td></tr><tr><td style="font-weight:bold;vertical-align:top;">httponly</td><td style="vertical-align:top;">:</td><td><div></div></td></tr><tr><td style="font-weight:bold;vertical-align:top;">max-age</td><td style="vertical-align:top;">:</td><td><div></div></td></tr><tr><td style="font-weight:bold;vertical-align:top;">path</td><td style="vertical-align:top;">:</td><td><div></div></td></tr><tr><td style="font-weight:bold;vertical-align:top;">secure</td><td style="vertical-align:top;">:</td><td><div></div></td></tr><tr><td style="font-weight:bold;vertical-align:top;">version</td><td style="vertical-align:top;">:</td><td><div></div></td></tr></table></div></td></tr><tr><td style="font-weight:bold;vertical-align:top;">session_id_welcome</td><td style="vertical-align:top;">:</td><td><div>127.0.0.1-a2d17cbf-7782-4534-9632-440cabc5e777<table><tr><td style="font-weight:bold;vertical-align:top;">comment</td><td style="vertical-align:top;">:</td><td><div></div></td></tr><tr><td style="font-weight:bold;vertical-align:top;">domain</td><td style="vertical-align:top;">:</td><td><div></div></td></tr><tr><td style="font-weight:bold;vertical-align:top;">expires</td><td style="vertical-align:top;">:</td><td><div></div></td></tr><tr><td style="font-weight:bold;vertical-align:top;">httponly</td><td style="vertical-align:top;">:</td><td><div></div></td></tr><tr><td style="font-weight:bold;vertical-align:top;">max-age</td><td style="vertical-align:top;">:</td><td><div></div></td></tr><tr><td style="font-weight:bold;vertical-align:top;">path</td><td style="vertical-align:top;">:</td><td><div></div></td></tr><tr><td style="font-weight:bold;vertical-align:top;">secure</td><td style="vertical-align:top;">:</td><td><div></div></td></tr><tr><td style="font-weight:bold;vertical-align:top;">version</td><td style="vertical-align:top;">:</td><td><div></div></td></tr></table></div></td></tr></table></div></td></tr><tr><td style="font-weight:bold;vertical-align:top;">env</td><td style="vertical-align:top;">:</td><td><div><table><tr><td style="font-weight:bold;vertical-align:top;">HTTP_ACCEPT</td><td style="vertical-align:top;">:</td><td><div>text/html,application/xhtml+xml,application/xml;q=0.9,image/webp,image/apng,*/*;q=0.8</div></td></tr><tr><td style="font-weight:bold;vertical-align:top;">HTTP_ACCEPT_ENCODING</td><td style="vertical-align:top;">:</td><td><div>gzip, deflate, br</div></td></tr><tr><td style="font-weight:bold;vertical-align:top;">HTTP_ACCEPT_LANGUAGE</td><td style="vertical-align:top;">:</td><td><div>en-US,en;q=0.9</div></td></tr><tr><td style="font-weight:bold;vertical-align:top;">HTTP_CONNECTION</td><td style="vertical-align:top;">:</td><td><div>keep-alive</div></td></tr><tr><td style="font-weight:bold;vertical-align:top;">HTTP_COOKIE</td><td style="vertical-align:top;">:</td><td><div>session_id_admin=127.0.0.1-5e71cd66-3b7d-4c65-adc7-8ed76961285c; adminLanguage=zh; session_id_hello=127.0.0.1-c670ab94-0430-4259-ad19-307c971103d5; session_id_images=127.0.0.1-96a1c6e9-4f42-40bf-8e2a-56582904dcad; session_id_welcome=127.0.0.1-a2d17cbf-7782-4534-9632-440cabc5e777; pga4_session=b17f8d6f-4f60-4c35-97a8-4231024d8610!NMc2rNqZ3v24RlWDyZ08z0LZ+iY=; PGADMIN_LANGUAGE=en; session_id_app1=127.0.0.1-5c1ed551-d0e0-4382-9b01-bf4efc48a769</div></td></tr><tr><td style="font-weight:bold;vertical-align:top;">HTTP_HOST</td><td style="vertical-align:top;">:</td><td><div>127.0.0.1:8000</div></td></tr><tr><td style="font-weight:bold;vertical-align:top;">HTTP_UPGRADE_INSECURE_REQUESTS</td><td style="vertical-align:top;">:</td><td><div>1</div></td></tr><tr><td style="font-weight:bold;vertical-align:top;">HTTP_USER_AGENT</td><td style="vertical-align:top;">:</td><td><div>Mozilla/5.0 (X11; Linux x86_64) AppleWebKit/537.36 (KHTML, like Gecko) Chrome/64.0.3282.140 Safari/537.36</div></td></tr><tr><td style="font-weight:bold;vertical-align:top;">PATH_INFO</td><td style="vertical-align:top;">:</td><td><div>/app1/api/call/run/balances</div></td></tr><tr><td style="font-weight:bold;vertical-align:top;">QUERY_STRING</td><td style="vertical-align:top;">:</td><td><div>id=GCHZDZXYLZ76XADS7735LK3OJUFZ2TBSXAR23YXKXCXXHUEEVT5C37PY</div></td></tr><tr><td style="font-weight:bold;vertical-align:top;">REMOTE_ADDR</td><td style="vertical-align:top;">:</td><td><div>127.0.0.1</div></td></tr><tr><td style="font-weight:bold;vertical-align:top;">REMOTE_PORT</td><td style="vertical-align:top;">:</td><td><div>50398</div></td></tr><tr><td style="font-weight:bold;vertical-align:top;">REQUEST_METHOD</td><td style="vertical-align:top;">:</td><td><div>GET</div></td></tr><tr><td style="font-weight:bold;vertical-align:top;">SCRIPT_NAME</td><td style="vertical-align:top;">:</td><td><div></div></td></tr><tr><td style="font-weight:bold;vertical-align:top;">SERVER_NAME</td><td style="vertical-align:top;">:</td><td><div>ubuntu</div></td></tr><tr><td style="font-weight:bold;vertical-align:top;">SERVER_PORT</td><td style="vertical-align:top;">:</td><td><div>8000</div></td></tr><tr><td style="font-weight:bold;vertical-align:top;">SERVER_PROTOCOL</td><td style="vertical-align:top;">:</td><td><div>HTTP/1.1</div></td></tr><tr><td style="font-weight:bold;vertical-align:top;">SERVER_SOFTWARE</td><td style="vertical-align:top;">:</td><td><div>Rocket 1.2.6</div></td></tr><tr><td style="font-weight:bold;vertical-align:top;">app_folders</td><td style="vertical-align:top;">:</td><td><div>set([&#x27;/home/cc5985/web2py/web2py/applications/welcome/&#x27;, &#x27;/home/cc5985/web2py/web2py/applications/app1/&#x27;, &#x27;/home/cc5985/web2py/web2py/applications/admin/&#x27;])</div></td></tr><tr><td style="font-weight:bold;vertical-align:top;">applications_parent</td><td style="vertical-align:top;">:</td><td><div>/home/cc5985/web2py/web2py</div></td></tr><tr><td style="font-weight:bold;vertical-align:top;">cmd_args</td><td style="vertical-align:top;">:</td><td><div><table></table></div></td></tr><tr><td style="font-weight:bold;vertical-align:top;">cmd_options</td><td style="vertical-align:top;">:</td><td><div>&lt;Values at 0x7fdaa0f5bf38: {&#x27;verbose&#x27;: False, &#x27;ip&#x27;: &#x27;127.0.0.1&#x27;, &#x27;debuglevel&#x27;: 30, &#x27;with_scheduler&#x27;: False, &#x27;shutdown_timeout&#x27;: 5, &#x27;taskbar&#x27;: False, &#x27;with_coverage&#x27;: False, &#x27;pid_filename&#x27;: &#x27;httpserver.pid&#x27;, &#x27;maxthreads&#x27;: None, &#x27;softcron&#x27;: False, &#x27;server_name&#x27;: &#x27;ubuntu&#x27;, &#x27;bpython&#x27;: False, &#x27;nogui&#x27;: False, &#x27;port&#x27;: 8000, &#x27;print_errors&#x27;: False, &#x27;extcron&#x27;: False, &#x27;runcron&#x27;: False, &#x27;run_system_tests&#x27;: False, &#x27;test&#x27;: None, &#x27;folder&#x27;: &#x27;/home/cc5985/web2py/web2py&#x27;, &#x27;config&#x27;: &#x27;&#x27;, &#x27;minthreads&#x27;: None, &#x27;shell&#x27;: None, &#x27;run&#x27;: &#x27;&#x27;, &#x27;log_filename&#x27;: &#x27;httpserver.log&#x27;, &#x27;profiler_dir&#x27;: None, &#x27;args&#x27;: [&#x27;&#x27;], &#x27;socket_timeout&#x27;: 5, &#x27;ssl_ca_certificate&#x27;: None, &#x27;scheduler&#x27;: None, &#x27;interfaces&#x27;: None, &#x27;ssl_private_key&#x27;: &#x27;&#x27;, &#x27;gae&#x27;: None, &#x27;password&#x27;: &#x27;******&#x27;, &#x27;request_queue_size&#x27;: 5, &#x27;ssl_certificate&#x27;: &#x27;&#x27;, &#x27;cronjob&#x27;: False, &#x27;numthreads&#x27;: None, &#x27;quiet&#x27;: False, &#x27;import_models&#x27;: False, &#x27;timeout&#x27;: 10, &#x27;plain&#x27;: False, &#x27;nobanner&#x27;: False}&gt;</div></td></tr><tr><td style="font-weight:bold;vertical-align:top;">db_sessions</td><td style="vertical-align:top;">:</td><td><div>set([])</div></td></tr><tr><td style="font-weight:bold;vertical-align:top;">debugging</td><td style="vertical-align:top;">:</td><td><div>False</div></td></tr><tr><td style="font-weight:bold;vertical-align:top;">gluon_parent</td><td style="vertical-align:top;">:</td><td><div>/home/cc5985/web2py/web2py</div></td></tr><tr><td style="font-weight:bold;vertical-align:top;">http_accept</td><td style="vertical-align:top;">:</td><td><div>text/html,application/xhtml+xml,application/xml;q=0.9,image/webp,image/apng,*/*;q=0.8</div></td></tr><tr><td style="font-weight:bold;vertical-align:top;">http_accept_encoding</td><td style="vertical-align:top;">:</td><td><div>gzip, deflate, br</div></td></tr><tr><td style="font-weight:bold;vertical-align:top;">http_accept_language</td><td style="vertical-align:top;">:</td><td><div>en-US,en;q=0.9</div></td></tr><tr><td style="font-weight:bold;vertical-align:top;">http_connection</td><td style="vertical-align:top;">:</td><td><div>keep-alive</div></td></tr><tr><td style="font-weight:bold;vertical-align:top;">http_cookie</td><td style="vertical-align:top;">:</td><td><div>session_id_admin=127.0.0.1-5e71cd66-3b7d-4c65-adc7-8ed76961285c; adminLanguage=zh; session_id_hello=127.0.0.1-c670ab94-0430-4259-ad19-307c971103d5; session_id_images=127.0.0.1-96a1c6e9-4f42-40bf-8e2a-56582904dcad; session_id_welcome=127.0.0.1-a2d17cbf-7782-4534-9632-440cabc5e777; pga4_session=b17f8d6f-4f60-4c35-97a8-4231024d8610!NMc2rNqZ3v24RlWDyZ08z0LZ+iY=; PGADMIN_LANGUAGE=en; session_id_app1=127.0.0.1-5c1ed551-d0e0-4382-9b01-bf4efc48a769</div></td></tr><tr><td style="font-weight:bold;vertical-align:top;">http_host</td><td style="vertical-align:top;">:</td><td><div>127.0.0.1:8000</div></td></tr><tr><td style="font-weight:bold;vertical-align:top;">http_upgrade_insecure_requests</td><td style="vertical-align:top;">:</td><td><div>1</div></td></tr><tr><td style="font-weight:bold;vertical-align:top;">http_user_agent</td><td style="vertical-align:top;">:</td><td><div>Mozilla/5.0 (X11; Linux x86_64) AppleWebKit/537.36 (KHTML, like Gecko) Chrome/64.0.3282.140 Safari/537.36</div></td></tr><tr><td style="font-weight:bold;vertical-align:top;">is_jython</td><td style="vertical-align:top;">:</td><td><div>False</div></td></tr><tr><td style="font-weight:bold;vertical-align:top;">is_py2</td><td style="vertical-align:top;">:</td><td><div>True</div></td></tr><tr><td style="font-weight:bold;vertical-align:top;">is_pypy</td><td style="vertical-align:top;">:</td><td><div>False</div></td></tr><tr><td style="font-weight:bold;vertical-align:top;">is_source</td><td style="vertical-align:top;">:</td><td><div>True</div></td></tr><tr><td style="font-weight:bold;vertical-align:top;">local_hosts</td><td style="vertical-align:top;">:</td><td><div><table><tr><td><div>::1</div></td></tr><tr><td><div>127.0.1.1</div></td></tr><tr><td><div>::ffff:127.0.0.1</div></td></tr><tr><td><div>127.0.0.1</div></td></tr><tr><td><div>ubuntu</div></td></tr></table></div></td></tr><tr><td style="font-weight:bold;vertical-align:top;">path_info</td><td style="vertical-align:top;">:</td><td><div>/app1/api/call/run/balances</div></td></tr><tr><td style="font-weight:bold;vertical-align:top;">query_string</td><td style="vertical-align:top;">:</td><td><div>id=GCHZDZXYLZ76XADS7735LK3OJUFZ2TBSXAR23YXKXCXXHUEEVT5C37PY</div></td></tr><tr><td style="font-weight:bold;vertical-align:top;">remote_addr</td><td style="vertical-align:top;">:</td><td><div>127.0.0.1</div></td></tr><tr><td style="font-weight:bold;vertical-align:top;">remote_port</td><td style="vertical-align:top;">:</td><td><div>50398</div></td></tr><tr><td style="font-weight:bold;vertical-align:top;">request_method</td><td style="vertical-align:top;">:</td><td><div>GET</div></td></tr><tr><td style="font-weight:bold;vertical-align:top;">request_uri</td><td style="vertical-align:top;">:</td><td><div>/app1/api/call/run/balances?id=GCHZDZXYLZ76XADS7735LK3OJUFZ2TBSXAR23YXKXCXXHUEEVT5C37PY</div></td></tr><tr><td style="font-weight:bold;vertical-align:top;">script_name</td><td style="vertical-align:top;">:</td><td><div></div></td></tr><tr><td style="font-weight:bold;vertical-align:top;">server_name</td><td style="vertical-align:top;">:</td><td><div>ubuntu</div></td></tr><tr><td style="font-weight:bold;vertical-align:top;">server_port</td><td style="vertical-align:top;">:</td><td><div>8000</div></td></tr><tr><td style="font-weight:bold;vertical-align:top;">server_protocol</td><td style="vertical-align:top;">:</td><td><div>HTTP/1.1</div></td></tr><tr><td style="font-weight:bold;vertical-align:top;">server_software</td><td style="vertical-align:top;">:</td><td><div>Rocket 1.2.6</div></td></tr><tr><td style="font-weight:bold;vertical-align:top;">web2py_path</td><td style="vertical-align:top;">:</td><td><div>/home/cc5985/web2py/web2py</div></td></tr><tr><td style="font-weight:bold;vertical-align:top;">web2py_version</td><td style="vertical-align:top;">:</td><td><div>2.16.1-stable+timestamp.2017.11.14.05.54.25</div></td></tr><tr><td style="font-weight:bold;vertical-align:top;">wsgi.errors</td><td style="vertical-align:top;">:</td><td><div>&lt;open file &#x27;&lt;stderr&gt;&#x27;, mode &#x27;w&#x27; at 0x7fdab3c631e0&gt;</div></td></tr><tr><td style="font-weight:bold;vertical-align:top;">wsgi.file_wrapper</td><td style="vertical-align:top;">:</td><td><div>&lt;class wsgiref.util.FileWrapper at 0x7fdaa0f71d50&gt;</div></td></tr><tr><td style="font-weight:bold;vertical-align:top;">wsgi.input</td><td style="vertical-align:top;">:</td><td><div>&lt;socket._fileobject object at 0x7fda9815e9d0&gt;</div></td></tr><tr><td style="font-weight:bold;vertical-align:top;">wsgi.multiprocess</td><td style="vertical-align:top;">:</td><td><div>False</div></td></tr><tr><td style="font-weight:bold;vertical-align:top;">wsgi.multithread</td><td style="vertical-align:top;">:</td><td><div>True</div></td></tr><tr><td style="font-weight:bold;vertical-align:top;">wsgi.run_once</td><td style="vertical-align:top;">:</td><td><div>False</div></td></tr><tr><td style="font-weight:bold;vertical-align:top;">wsgi.url_scheme</td><td style="vertical-align:top;">:</td><td><div>http</div></td></tr><tr><td style="font-weight:bold;vertical-align:top;">wsgi.version</td><td style="vertical-align:top;">:</td><td><div><table><tr><td><div>1</div></td></tr><tr><td><div>0</div></td></tr></table></div></td></tr><tr><td style="font-weight:bold;vertical-align:top;">wsgi_errors</td><td style="vertical-align:top;">:</td><td><div>&lt;open file &#x27;&lt;stderr&gt;&#x27;, mode &#x27;w&#x27; at 0x7fdab3c631e0&gt;</div></td></tr><tr><td style="font-weight:bold;vertical-align:top;">wsgi_file_wrapper</td><td style="vertical-align:top;">:</td><td><div>&lt;class wsgiref.util.FileWrapper at 0x7fdaa0f71d50&gt;</div></td></tr><tr><td style="font-weight:bold;vertical-align:top;">wsgi_input</td><td style="vertical-align:top;">:</td><td><div>&lt;socket._fileobject object at 0x7fda9815e9d0&gt;</div></td></tr><tr><td style="font-weight:bold;vertical-align:top;">wsgi_multiprocess</td><td style="vertical-align:top;">:</td><td><div>False</div></td></tr><tr><td style="font-weight:bold;vertical-align:top;">wsgi_multithread</td><td style="vertical-align:top;">:</td><td><div>True</div></td></tr><tr><td style="font-weight:bold;vertical-align:top;">wsgi_run_once</td><td style="vertical-align:top;">:</td><td><div>False</div></td></tr><tr><td style="font-weight:bold;vertical-align:top;">wsgi_url_scheme</td><td style="vertical-align:top;">:</td><td><div>http</div></td></tr><tr><td style="font-weight:bold;vertical-align:top;">wsgi_version</td><td style="vertical-align:top;">:</td><td><div><table><tr><td><div>1</div></td></tr><tr><td><div>0</div></td></tr></table></div></td></tr></table></div></td></tr><tr><td style="font-weight:bold;vertical-align:top;">extension</td><td style="vertical-align:top;">:</td><td><div>html</div></td></tr><tr><td style="font-weight:bold;vertical-align:top;">folder</td><td style="vertical-align:top;">:</td><td><div>/home/cc5985/web2py/web2py/applications/app1/</div></td></tr><tr><td style="font-weight:bold;vertical-align:top;">function</td><td style="vertical-align:top;">:</td><td><div>call</div></td></tr><tr><td style="font-weight:bold;vertical-align:top;">global_settings</td><td style="vertical-align:top;">:</td><td><div><table><tr><td style="font-weight:bold;vertical-align:top;">app_folders</td><td style="vertical-align:top;">:</td><td><div>set([&#x27;/home/cc5985/web2py/web2py/applications/welcome/&#x27;, &#x27;/home/cc5985/web2py/web2py/applications/app1/&#x27;, &#x27;/home/cc5985/web2py/web2py/applications/admin/&#x27;])</div></td></tr><tr><td style="font-weight:bold;vertical-align:top;">applications_parent</td><td style="vertical-align:top;">:</td><td><div>/home/cc5985/web2py/web2py</div></td></tr><tr><td style="font-weight:bold;vertical-align:top;">cmd_args</td><td style="vertical-align:top;">:</td><td><div><table></table></div></td></tr><tr><td style="font-weight:bold;vertical-align:top;">cmd_options</td><td style="vertical-align:top;">:</td><td><div>&lt;Values at 0x7fdaa0f5bf38: {&#x27;verbose&#x27;: False, &#x27;ip&#x27;: &#x27;127.0.0.1&#x27;, &#x27;debuglevel&#x27;: 30, &#x27;with_scheduler&#x27;: False, &#x27;shutdown_timeout&#x27;: 5, &#x27;taskbar&#x27;: False, &#x27;with_coverage&#x27;: False, &#x27;pid_filename&#x27;: &#x27;httpserver.pid&#x27;, &#x27;maxthreads&#x27;: None, &#x27;softcron&#x27;: False, &#x27;server_name&#x27;: &#x27;ubuntu&#x27;, &#x27;bpython&#x27;: False, &#x27;nogui&#x27;: False, &#x27;port&#x27;: 8000, &#x27;print_errors&#x27;: False, &#x27;extcron&#x27;: False, &#x27;runcron&#x27;: False, &#x27;run_system_tests&#x27;: False, &#x27;test&#x27;: None, &#x27;folder&#x27;: &#x27;/home/cc5985/web2py/web2py&#x27;, &#x27;config&#x27;: &#x27;&#x27;, &#x27;minthreads&#x27;: None, &#x27;shell&#x27;: None, &#x27;run&#x27;: &#x27;&#x27;, &#x27;log_filename&#x27;: &#x27;httpserver.log&#x27;, &#x27;profiler_dir&#x27;: None, &#x27;args&#x27;: [&#x27;&#x27;], &#x27;socket_timeout&#x27;: 5, &#x27;ssl_ca_certificate&#x27;: None, &#x27;scheduler&#x27;: None, &#x27;interfaces&#x27;: None, &#x27;ssl_private_key&#x27;: &#x27;&#x27;, &#x27;gae&#x27;: None, &#x27;password&#x27;: &#x27;******&#x27;, &#x27;request_queue_size&#x27;: 5, &#x27;ssl_certificate&#x27;: &#x27;&#x27;, &#x27;cronjob&#x27;: False, &#x27;numthreads&#x27;: None, &#x27;quiet&#x27;: False, &#x27;import_models&#x27;: False, &#x27;timeout&#x27;: 10, &#x27;plain&#x27;: False, &#x27;nobanner&#x27;: False}&gt;</div></td></tr><tr><td style="font-weight:bold;vertical-align:top;">db_sessions</td><td style="vertical-align:top;">:</td><td><div>set([])</div></td></tr><tr><td style="font-weight:bold;vertical-align:top;">debugging</td><td style="vertical-align:top;">:</td><td><div>False</div></td></tr><tr><td style="font-weight:bold;vertical-align:top;">gluon_parent</td><td style="vertical-align:top;">:</td><td><div>/home/cc5985/web2py/web2py</div></td></tr><tr><td style="font-weight:bold;vertical-align:top;">is_jython</td><td style="vertical-align:top;">:</td><td><div>False</div></td></tr><tr><td style="font-weight:bold;vertical-align:top;">is_py2</td><td style="vertical-align:top;">:</td><td><div>True</div></td></tr><tr><td style="font-weight:bold;vertical-align:top;">is_pypy</td><td style="vertical-align:top;">:</td><td><div>False</div></td></tr><tr><td style="font-weight:bold;vertical-align:top;">is_source</td><td style="vertical-align:top;">:</td><td><div>True</div></td></tr><tr><td style="font-weight:bold;vertical-align:top;">local_hosts</td><td style="vertical-align:top;">:</td><td><div><table><tr><td><div>::1</div></td></tr><tr><td><div>127.0.1.1</div></td></tr><tr><td><div>::ffff:127.0.0.1</div></td></tr><tr><td><div>127.0.0.1</div></td></tr><tr><td><div>ubuntu</div></td></tr></table></div></td></tr><tr><td style="font-weight:bold;vertical-align:top;">web2py_version</td><td style="vertical-align:top;">:</td><td><div>2.16.1-stable+timestamp.2017.11.14.05.54.25</div></td></tr></table></div></td></tr><tr><td style="font-weight:bold;vertical-align:top;">is_https</td><td style="vertical-align:top;">:</td><td><div>False</div></td></tr><tr><td style="font-weight:bold;vertical-align:top;">is_local</td><td style="vertical-align:top;">:</td><td><div>True</div></td></tr><tr><td style="font-weight:bold;vertical-align:top;">is_restful</td><td style="vertical-align:top;">:</td><td><div>False</div></td></tr><tr><td style="font-weight:bold;vertical-align:top;">is_scheduler</td><td style="vertical-align:top;">:</td><td><div>False</div></td></tr><tr><td style="font-weight:bold;vertical-align:top;">is_shell</td><td style="vertical-align:top;">:</td><td><div>False</div></td></tr><tr><td style="font-weight:bold;vertical-align:top;">now</td><td style="vertical-align:top;">:</td><td><div>datetime.datetime(2018, 8, 15, 17, 49, 34, 818682)</div></td></tr><tr><td style="font-weight:bold;vertical-align:top;">raw_args</td><td style="vertical-align:top;">:</td><td><div>run/balances</div></td></tr><tr><td style="font-weight:bold;vertical-align:top;">raw_extension</td><td style="vertical-align:top;">:</td><td><div>None</div></td></tr><tr><td style="font-weight:bold;vertical-align:top;">url</td><td style="vertical-align:top;">:</td><td><div>/app1/api/call/run/balances</div></td></tr><tr><td style="font-weight:bold;vertical-align:top;">utcnow</td><td style="vertical-align:top;">:</td><td><div>datetime.datetime(2018, 8, 15, 9, 49, 34, 818709)</div></td></tr><tr><td style="font-weight:bold;vertical-align:top;">wsgi</td><td style="vertical-align:top;">:</td><td><div>&lt;gluon.main.LazyWSGI object at 0x7fda802f1b90&gt;</div></td></tr></table></div>'
tRp73
sS'frames'
p74
(lp75
(dp76
S'file'
p77
S'/home/cc5985/web2py/web2py/gluon/restricted.py'
p78
sS'dump'
p79
(dp80
S'environment'
p81
S"{'A': <class 'gluon.html.A'>, 'ANY_OF': <class 'gluon.validators.ANY_OF'>, 'ASSIGNJS': <function ASSIGNJS>, 'AppConfig': <function AppConfig>, 'Auth': <class 'gluon.tools.Auth'>, 'B': <class 'gluon.html.B'>, 'BEAUTIFY': <class 'gluon.html.BEAUTIFY'>, 'BODY': <class 'gluon.html.BODY'>, 'BR': <class 'gluon.html.BR'>, 'BUTTON': <class 'gluon.html.BUTTON'>, ...}"
p82
sS'ccode'
p83
S'<code object <module> at 0x7fda8035e0b0, file "/...py/applications/app1/controllers/api.py", line 1>'
p84
ssS'lnum'
p85
I219
sS'lines'
p86
(dp87
I214
S'    if environment is None:'
p88
sI215
S'        environment = {}'
p89
sI216
S"    environment['__file__'] = layer"
p90
sI217
S"    environment['__name__'] = '__restricted__'"
p91
sI218
S'    try:'
p92
sI219
S'        exec(ccode, environment)'
p93
sI220
S'    except HTTP:'
p94
sI221
S'        raise'
p95
sI222
S'    except RestrictedError:'
p96
sI223
S'        # do not encapsulate (obfuscate) the original RestrictedError'
p97
ssS'call'
p98
S'(ccode=<code object <module> at 0x7fda8035e0b0, file "/...py/applications/app1/controllers/api.py", line 1>, environment={\'A\': <class \'gluon.html.A\'>, \'ANY_OF\': <class \'gluon.validators.ANY_OF\'>, \'ASSIGNJS\': <function ASSIGNJS>, \'AppConfig\': <function AppConfig>, \'Auth\': <class \'gluon.tools.Auth\'>, \'B\': <class \'gluon.html.B\'>, \'BEAUTIFY\': <class \'gluon.html.BEAUTIFY\'>, \'BODY\': <class \'gluon.html.BODY\'>, \'BR\': <class \'gluon.html.BR\'>, \'BUTTON\': <class \'gluon.html.BUTTON\'>, ...}, layer=\'/home/cc5985/web2py/web2py/applications/app1/controllers/api.py\', scode=<code object <module> at 0x7fda8035e0b0, file "/...py/applications/app1/controllers/api.py", line 1>)'
p99
sS'func'
p100
S'restricted'
p101
sa(dp102
g77
S'/home/cc5985/web2py/web2py/applications/app1/controllers/api.py'
p103
sg79
(dp104
sg85
I195
sg86
(dp105
I192
S''
sI193
S''
sI184
S"    '''"
p106
sI185
S'    if limit*page > total_limit and total_limit!=0:'
p107
sI186
S'        return []'
p108
sI187
S'    from pg_test import PsycoPG'
p109
sI188
S"    my_psycopg=PsycoPG('horizon_testnet','cc5985','caichong','localhost','5432')"
p110
sI189
S'    # select * from history_transactions where created_at not in (select created_at from history_transactions order by created_at limit 100) order by created_at limit 50'
p111
sI190
S"    rows=my_psycopg.select('select * from history_transactions where created_at not in (select created_at from history_transactions order by created_at limit ' + one_page_limit*(page-1) + ') order by created_at limit ' + one_page_limit)"
p112
sI191
S'    a=1'
p113
ssg98
S'()'
p114
sg100
S'<module>'
p115
sa(dp116
g77
S'/home/cc5985/web2py/web2py/gluon/globals.py'
p117
sg79
(dp118
S'self'
p119
S'undefined'
p120
sS'f'
S'<function call>'
p121
ssg85
I420
sg86
(dp122
I416
S'        self.meta = Storage()      # used by web2py_ajax.html'
p123
sI417
S'        self.menu = []             # used by the default view layout'
p124
sI418
S'        self.files = []            # used by web2py_ajax.html'
p125
sI419
S'        self._vars = None'
p126
sI420
S'        self._caller = lambda f: f()'
p127
sI421
S'        self._view_environment = None'
p128
sI422
S'        self._custom_commit = None'
p129
sI423
S'        self._custom_rollback = None'
p130
sI424
S"        self.generic_patterns = ['*']"
p131
sI415
S"        self.flash = ''            # used by the default view layout"
p132
ssg98
S'(f=<function call>)'
p133
sg100
S'<lambda>'
p134
sa(dp135
g77
S'/home/cc5985/web2py/web2py/applications/app1/controllers/api.py'
p136
sg79
(dp137
S'global service'
p138
S'<gluon.tools.Service object>'
p139
ssg85
I18
sg86
(dp140
I13
S'service = Service()'
p141
sI14
S''
sI15
S''
sI16
S'def call():'
p142
sI17
S'    session.forget()'
p143
sI18
S'    return service()'
p144
sI19
S''
sI20
S''
sI21
S'@service.run'
p145
sI22
S'def add(x,y):'
p146
ssg98
S'()'
p147
sg100
g98
sa(dp148
g77
S'/home/cc5985/web2py/web2py/gluon/tools.py'
p149
sg79
(dp150
S'request.args'
p151
S"['run', 'balances']"
p152
sS'self.serve_run'
p153
S'<bound method Service.serve_run of <gluon.tools.Service object>>'
p154
sS'self'
p155
S'<gluon.tools.Service object>'
p156
sS'request'
p157
S"<Storage {'_vars': <Storage {'id': 'GCHZDZXYLZ76...'/home/cc5985/web2py/web2py/applications/app1/'}>"
p158
ssg85
I5473
sg86
(dp159
I5472
S"        if arg0 == 'run':"
p160
sI5473
S'            return self.serve_run(request.args[1:])'
p161
sI5474
S"        elif arg0 == 'rss':"
p162
sI5475
S'            return self.serve_rss(request.args[1:])'
p163
sI5476
S"        elif arg0 == 'csv':"
p164
sI5477
S'            return self.serve_csv(request.args[1:])'
p165
sI5468
S'        request = current.request'
p166
sI5469
S'        if len(request.args) < 1:'
p167
sI5470
S'            raise HTTP(404, "Not Found")'
p168
sI5471
S'        arg0 = request.args(0)'
p169
ssg98
S'(self=<gluon.tools.Service object>)'
p170
sg100
S'__call__'
p171
sa(dp172
g77
S'/home/cc5985/web2py/web2py/gluon/tools.py'
p173
sg79
(dp174
S'request.vars'
p175
S"<Storage {'id': 'GCHZDZXYLZ76XADS7735LK3OJUFZ2TBSXAR23YXKXCXXHUEEVT5C37PY'}>"
p176
sS'args'
p177
S"['balances']"
p178
sS'request'
p179
S"<Storage {'_vars': <Storage {'id': 'GCHZDZXYLZ76...'/home/cc5985/web2py/web2py/applications/app1/'}>"
p180
sS'builtindict'
p181
S"<type 'dict'>"
p182
ssg85
I5090
sg86
(dp183
I5088
S'        if args and args[0] in self.run_procedures:'
p184
sI5089
S'            return str(self.call_service_function(self.run_procedures[args[0]],'
p185
sI5090
S'                                                  *args[1:], **dict(request.vars)))'
p186
sI5091
S'        self.error()'
p187
sI5092
S''
sI5093
S'    def serve_csv(self, args=None):'
p188
sI5094
S'        request = current.request'
p189
sI5085
S'        request = current.request'
p190
sI5086
S'        if not args:'
p191
sI5087
S'            args = request.args'
p192
ssg98
S"(self=<gluon.tools.Service object>, args=['balances'])"
p193
sg100
S'serve_run'
p194
sa(dp195
g77
S'/home/cc5985/web2py/web2py/gluon/tools.py'
p196
sg79
(dp197
S'a'
S'()'
p198
sS'b'
S"{'id': 'GCHZDZXYLZ76XADS7735LK3OJUFZ2TBSXAR23YXKXCXXHUEEVT5C37PY'}"
p199
sS'f'
S'<function balances>'
p200
ssg85
I5506
sg86
(dp201
I5504
S'            return universal_caller(f, *a, **b)'
p202
sI5505
S'        else:'
p203
sI5506
S'            return f(*a, **b)'
p204
sI5507
S''
sI5508
S''
sI5509
S'def completion(callback):'
p205
sI5510
S'    """'
p206
sI5501
S'    # but the default implmentation is the simplest: just pass the arguments we got, with no checking'
p207
sI5502
S'    def call_service_function(self, f, *a, **b):'
p208
sI5503
S'        if self.check_args:'
p209
ssg98
S"(self=<gluon.tools.Service object>, f=<function balances>, *a=(), **b={'id': 'GCHZDZXYLZ76XADS7735LK3OJUFZ2TBSXAR23YXKXCXXHUEEVT5C37PY'})"
p210
sg100
S'call_service_function'
p211
sa(dp212
g77
S'/home/cc5985/web2py/web2py/applications/app1/controllers/api.py'
p213
sg79
(dp214
S'requests.get'
p215
S'<function get>'
p216
sS'json.loads'
p217
S'<function loads>'
p218
sS').text'
p219
g120
sS'global json'
p220
S"<module 'json' from '/usr/lib/python2.7/json/__init__.pyc'>"
p221
sS'BASE_URL'
p222
S"'test'"
p223
sS'global requests'
p224
S"<module 'requests' from '/home/cc5985/web2py/web...b/python2.7/site-packages/requests/__init__.pyc'>"
p225
sS'global response'
p226
S"<Storage {'body': <cStringIO.StringO object at 0...da> at 0x7fda802f6e60>, 'view': 'api/call.html'}>"
p227
sS'id'
p228
S"'GCHZDZXYLZ76XADS7735LK3OJUFZ2TBSXAR23YXKXCXXHUEEVT5C37PY'"
p229
ssg85
I60
sg86
(dp230
I64
S'            item=dict(item)'
p231
sI55
S'    validity=check.check_validity_of_address(id)'
p232
sI56
S'    if validity==False:'
p233
sI57
S'        pass'
p234
sI58
S'    else:'
p235
sI59
S'        # inquire api_server and reformat the response'
p236
sI60
S"        response=json.loads(requests.get(BASE_URL+'/accounts/'+id).text)"
p237
sI61
S"        result['id']=response.get('id','None')"
p238
sI62
S"        balances=response.get('balances',[])"
p239
sI63
S'        for item in balances:'
p240
ssg98
S"(id='GCHZDZXYLZ76XADS7735LK3OJUFZ2TBSXAR23YXKXCXXHUEEVT5C37PY')"
p241
sg100
S'balances'
p242
sa(dp243
g77
S'/home/cc5985/web2py/web2py/applications/app1/venv/local/lib/python2.7/site-packages/requests/api.py'
p244
sg79
(dp245
S'global request'
p246
S'<function request>'
p247
sS'url'
p248
S"'test/accounts/GCHZDZXYLZ76XADS7735LK3OJUFZ2TBSXAR23YXKXCXXHUEEVT5C37PY'"
p249
sS'params'
p250
S'None'
p251
sS'kwargs'
p252
S"{'allow_redirects': True}"
p253
ssg85
I72
sg86
(dp254
I67
S'    :return: :class:`Response <Response>` object'
p255
sI68
S'    :rtype: requests.Response'
p256
sI69
S'    """'
p257
sI70
S''
sI71
S"    kwargs.setdefault('allow_redirects', True)"
p258
sI72
S"    return request('get', url, params=params, **kwargs)"
p259
sI73
S''
sI74
S''
sI75
S'def options(url, **kwargs):'
p260
sI76
S'    r"""Sends an OPTIONS request.'
p261
ssg98
S"(url='test/accounts/GCHZDZXYLZ76XADS7735LK3OJUFZ2TBSXAR23YXKXCXXHUEEVT5C37PY', params=None, **kwargs={'allow_redirects': True})"
p262
sg100
S'get'
p263
sa(dp264
g77
S'/home/cc5985/web2py/web2py/applications/app1/venv/local/lib/python2.7/site-packages/requests/api.py'
p265
sg79
(dp266
S'url'
p267
S"'test/accounts/GCHZDZXYLZ76XADS7735LK3OJUFZ2TBSXAR23YXKXCXXHUEEVT5C37PY'"
p268
sS'session'
p269
S'<requests.sessions.Session object>'
p270
sS'method'
p271
S"'get'"
p272
sS'session.request'
p273
S'<bound method Session.request of <requests.sessions.Session object>>'
p274
sS'kwargs'
p275
S"{'allow_redirects': True, 'params': None}"
p276
ssg85
I58
sg86
(dp277
I53
S''
sI54
S"    # By using the 'with' statement we are sure the session is closed, thus we"
p278
sI55
S'    # avoid leaving sockets open which can trigger a ResourceWarning in some'
p279
sI56
S'    # cases, and look like a memory leak in others.'
p280
sI57
S'    with sessions.Session() as session:'
p281
sI58
S'        return session.request(method=method, url=url, **kwargs)'
p282
sI59
S''
sI60
S''
sI61
S'def get(url, params=None, **kwargs):'
p283
sI62
S'    r"""Sends a GET request.'
p284
ssg98
S"(method='get', url='test/accounts/GCHZDZXYLZ76XADS7735LK3OJUFZ2TBSXAR23YXKXCXXHUEEVT5C37PY', **kwargs={'allow_redirects': True, 'params': None})"
p285
sg100
g60
sa(dp286
g77
S'/home/cc5985/web2py/web2py/applications/app1/venv/local/lib/python2.7/site-packages/requests/sessions.py'
p287
sg79
(dp288
S'self'
p289
S'<requests.sessions.Session object>'
p290
sS'req'
p291
S'<Request [GET]>'
p292
sS'prep'
p293
g120
sS'self.prepare_request'
p294
S'<bound method Session.prepare_request of <requests.sessions.Session object>>'
p295
ssg85
I498
sg86
(dp296
I493
S'            params=params or {},'
p297
sI494
S'            auth=auth,'
p298
sI495
S'            cookies=cookies,'
p299
sI496
S'            hooks=hooks,'
p300
sI497
S'        )'
p301
sI498
S'        prep = self.prepare_request(req)'
p302
sI499
S''
sI500
S'        proxies = proxies or {}'
p303
sI501
S''
sI502
S'        settings = self.merge_environment_settings('
p304
ssg98
S"(self=<requests.sessions.Session object>, method='get', url='test/accounts/GCHZDZXYLZ76XADS7735LK3OJUFZ2TBSXAR23YXKXCXXHUEEVT5C37PY', params=None, data=None, headers=None, cookies=None, files=None, auth=None, timeout=None, allow_redirects=True, proxies=None, hooks=None, stream=None, verify=None, cert=None, json=None)"
p305
sg100
g60
sa(dp306
g77
S'/home/cc5985/web2py/web2py/applications/app1/venv/local/lib/python2.7/site-packages/requests/sessions.py'
p307
sg79
(dp308
S'global merge_hooks'
p309
S'<function merge_hooks>'
p310
sS'hooks'
p311
g120
sS'self'
p312
S'<requests.sessions.Session object>'
p313
sS'request.hooks'
p314
S"{'response': []}"
p315
sS'request'
p316
S'<Request [GET]>'
p317
sS'self.hooks'
p318
S"{'response': []}"
p319
ssg85
I441
sg86
(dp320
I436
S'            json=request.json,'
p321
sI437
S'            headers=merge_setting(request.headers, self.headers, dict_class=CaseInsensitiveDict),'
p322
sI438
S'            params=merge_setting(request.params, self.params),'
p323
sI439
S'            auth=merge_setting(auth, self.auth),'
p324
sI440
S'            cookies=merged_cookies,'
p325
sI441
S'            hooks=merge_hooks(request.hooks, self.hooks),'
p326
sI442
S'        )'
p327
sI443
S'        return p'
p328
sI444
S''
sI445
S'    def request(self, method, url,'
p329
ssg98
S'(self=<requests.sessions.Session object>, request=<Request [GET]>)'
p330
sg100
S'prepare_request'
p331
sa(dp332
g77
S'/home/cc5985/web2py/web2py/applications/app1/venv/local/lib/python2.7/site-packages/requests/models.py'
p333
sg79
(dp334
S'url'
p335
S"'test/accounts/GCHZDZXYLZ76XADS7735LK3OJUFZ2TBSXAR23YXKXCXXHUEEVT5C37PY'"
p336
sS'self'
p337
S'<PreparedRequest [GET]>'
p338
sS'self.prepare_url'
p339
S'<bound method PreparedRequest.prepare_url of <PreparedRequest [GET]>>'
p340
sS'params'
p341
S'OrderedDict()'
p342
ssg85
I309
sg86
(dp343
I304
S'            method=None, url=None, headers=None, files=None, data=None,'
p344
sI305
S'            params=None, auth=None, cookies=None, hooks=None, json=None):'
p345
sI306
S'        """Prepares the entire request with the given parameters."""'
p346
sI307
S''
sI308
S'        self.prepare_method(method)'
p347
sI309
S'        self.prepare_url(url, params)'
p348
sI310
S'        self.prepare_headers(headers)'
p349
sI311
S'        self.prepare_cookies(cookies)'
p350
sI312
S'        self.prepare_body(data, files, json)'
p351
sI313
S'        self.prepare_auth(auth, url)'
p352
ssg98
S"(self=<PreparedRequest [GET]>, method='GET', url='test/accounts/GCHZDZXYLZ76XADS7735LK3OJUFZ2TBSXAR23YXKXCXXHUEEVT5C37PY', headers={'Connection': 'keep-alive', 'Accept-Encoding': ...': '*/*', 'User-Agent': 'python-requests/2.19.1'}, files=[], data={}, params=OrderedDict(), auth=None, cookies=<RequestsCookieJar[]>, hooks={'response': []}, json=None)"
p353
sg100
S'prepare'
p354
sa(dp355
g77
S'/home/cc5985/web2py/web2py/applications/app1/venv/local/lib/python2.7/site-packages/requests/models.py'
p356
sg79
(dp357
S'global MissingSchema'
p358
S"<class 'requests.exceptions.MissingSchema'>"
p359
sS'error'
p360
S'"Invalid URL \'test/accounts/GCHZDZXYLZ76XADS7735L...LZ76XADS7735LK3OJUFZ2TBSXAR23YXKXCXXHUEEVT5C37PY?"'
p361
ssg85
I383
sg86
(dp362
I384
S''
sI385
S'        if not host:'
p363
sI386
S'            raise InvalidURL("Invalid URL %r: No host supplied" % url)'
p364
sI387
S''
sI378
S''
sI379
S'        if not scheme:'
p365
sI380
S'            error = ("Invalid URL {0!r}: No schema supplied. Perhaps you meant http://{0}?")'
p366
sI381
S"            error = error.format(to_native_string(url, 'utf8'))"
p367
sI382
S''
sI383
S'            raise MissingSchema(error)'
p368
ssg98
S"(self=<PreparedRequest [GET]>, url=u'test/accounts/GCHZDZXYLZ76XADS7735LK3OJUFZ2TBSXAR23YXKXCXXHUEEVT5C37PY', params=OrderedDict())"
p369
sg100
S'prepare_url'
p370
sasS'pyver'
p371
S'Python 2.7.12: /home/cc5985/web2py/web2py/applications/app1/venv/bin/python (prefix: /home/cc5985/web2py/web2py/applications/app1/venv)'
p372
sS'session'
p373
g72
(S's\x1a\x00\x00\x00<div><table></table></div>'
tRp374
sS'etype'
p375
S"<class 'requests.exceptions.MissingSchema'>"
p376
sS'date'
p377
S'Wed Aug 15 17:49:34 2018'
p378
sg56
g72
(S's\x0f<\x00\x00<div><table><tr><td style="font-weight:bold;vertical-align:top;">body</td><td style="vertical-align:top;">:</td><td><div>&lt;cStringIO.StringO object at 0x7fda80647d18&gt;</div></td></tr><tr><td style="font-weight:bold;vertical-align:top;">cookies</td><td style="vertical-align:top;">:</td><td><div><table><tr><td style="font-weight:bold;vertical-align:top;">session_id_app1</td><td style="vertical-align:top;">:</td><td><div>127.0.0.1-9998ccb6-dad8-4cde-b70b-08f626864948<table><tr><td style="font-weight:bold;vertical-align:top;">comment</td><td style="vertical-align:top;">:</td><td><div></div></td></tr><tr><td style="font-weight:bold;vertical-align:top;">domain</td><td style="vertical-align:top;">:</td><td><div></div></td></tr><tr><td style="font-weight:bold;vertical-align:top;">expires</td><td style="vertical-align:top;">:</td><td><div></div></td></tr><tr><td style="font-weight:bold;vertical-align:top;">httponly</td><td style="vertical-align:top;">:</td><td><div></div></td></tr><tr><td style="font-weight:bold;vertical-align:top;">max-age</td><td style="vertical-align:top;">:</td><td><div></div></td></tr><tr><td style="font-weight:bold;vertical-align:top;">path</td><td style="vertical-align:top;">:</td><td><div>/</div></td></tr><tr><td style="font-weight:bold;vertical-align:top;">secure</td><td style="vertical-align:top;">:</td><td><div></div></td></tr><tr><td style="font-weight:bold;vertical-align:top;">version</td><td style="vertical-align:top;">:</td><td><div></div></td></tr></table></div></td></tr></table></div></td></tr><tr><td style="font-weight:bold;vertical-align:top;">delimiters</td><td style="vertical-align:top;">:</td><td><div><table><tr><td><div>{{</div></td></tr><tr><td><div>}}</div></td></tr></table></div></td></tr><tr><td style="font-weight:bold;vertical-align:top;">files</td><td style="vertical-align:top;">:</td><td><div><table></table></div></td></tr><tr><td style="font-weight:bold;vertical-align:top;">flash</td><td style="vertical-align:top;">:</td><td><div></div></td></tr><tr><td style="font-weight:bold;vertical-align:top;">form_label_separator</td><td style="vertical-align:top;">:</td><td><div></div></td></tr><tr><td style="font-weight:bold;vertical-align:top;">formstyle</td><td style="vertical-align:top;">:</td><td><div>bootstrap4_inline</div></td></tr><tr><td style="font-weight:bold;vertical-align:top;">generic_patterns</td><td style="vertical-align:top;">:</td><td><div><table><tr><td><div>*</div></td></tr></table></div></td></tr><tr><td style="font-weight:bold;vertical-align:top;">google_analytics_id</td><td style="vertical-align:top;">:</td><td><div>None</div></td></tr><tr><td style="font-weight:bold;vertical-align:top;">headers</td><td style="vertical-align:top;">:</td><td><div><table><tr><td style="font-weight:bold;vertical-align:top;">Access-Control-Allow-Origin</td><td style="vertical-align:top;">:</td><td><div>*</div></td></tr><tr><td style="font-weight:bold;vertical-align:top;">X-Powered-By</td><td style="vertical-align:top;">:</td><td><div>web2py</div></td></tr></table></div></td></tr><tr><td style="font-weight:bold;vertical-align:top;">menu</td><td style="vertical-align:top;">:</td><td><div><table><tr><td><div><table><tr><td><div>Home</div></td></tr><tr><td><div>False</div></td></tr><tr><td><div>/app1/default/index</div></td></tr><tr><td><div><table></table></div></td></tr></table></div></td></tr><tr><td><div><table><tr><td><div>My Sites</div></td></tr><tr><td><div>False</div></td></tr><tr><td><div>/admin/default/site</div></td></tr></table></div></td></tr><tr><td><div><table><tr><td><div>This App</div></td></tr><tr><td><div>False</div></td></tr><tr><td><div>#</div></td></tr><tr><td><div><table><tr><td><div><table><tr><td><div>Design</div></td></tr><tr><td><div>False</div></td></tr><tr><td><div>/admin/default/design/app1</div></td></tr></table></div></td></tr><tr><td><div><table><tr><td><div>Controller</div></td></tr><tr><td><div>False</div></td></tr><tr><td><div>/admin/default/edit/app1/controllers/api.py</div></td></tr></table></div></td></tr><tr><td><div><table><tr><td><div>View</div></td></tr><tr><td><div>False</div></td></tr><tr><td><div>/admin/default/edit/app1/views/api/call.html</div></td></tr></table></div></td></tr><tr><td><div><table><tr><td><div>DB Model</div></td></tr><tr><td><div>False</div></td></tr><tr><td><div>/admin/default/edit/app1/models/db.py</div></td></tr></table></div></td></tr><tr><td><div><table><tr><td><div>Menu Model</div></td></tr><tr><td><div>False</div></td></tr><tr><td><div>/admin/default/edit/app1/models/menu.py</div></td></tr></table></div></td></tr><tr><td><div><table><tr><td><div>Config.ini</div></td></tr><tr><td><div>False</div></td></tr><tr><td><div>/admin/default/edit/app1/private/appconfig.ini</div></td></tr></table></div></td></tr><tr><td><div><table><tr><td><div>Layout</div></td></tr><tr><td><div>False</div></td></tr><tr><td><div>/admin/default/edit/app1/views/layout.html</div></td></tr></table></div></td></tr><tr><td><div><table><tr><td><div>Stylesheet</div></td></tr><tr><td><div>False</div></td></tr><tr><td><div>/admin/default/edit/app1/static/css/web2py-bootstrap3.css</div></td></tr></table></div></td></tr><tr><td><div><table><tr><td><div>Database</div></td></tr><tr><td><div>False</div></td></tr><tr><td><div>/app1/appadmin/index</div></td></tr></table></div></td></tr><tr><td><div><table><tr><td><div>Errors</div></td></tr><tr><td><div>False</div></td></tr><tr><td><div>/admin/default/errors/app1</div></td></tr></table></div></td></tr><tr><td><div><table><tr><td><div>About</div></td></tr><tr><td><div>False</div></td></tr><tr><td><div>/admin/default/about/app1</div></td></tr></table></div></td></tr></table></div></td></tr></table></div></td></tr><tr><td><div><table><tr><td><div>web2py.com</div></td></tr><tr><td><div>False</div></td></tr><tr><td><div>#</div></td></tr><tr><td><div><table><tr><td><div><table><tr><td><div>Download</div></td></tr><tr><td><div>False</div></td></tr><tr><td><div>http://www.web2py.com/examples/default/download</div></td></tr></table></div></td></tr><tr><td><div><table><tr><td><div>Support</div></td></tr><tr><td><div>False</div></td></tr><tr><td><div>http://www.web2py.com/examples/default/support</div></td></tr></table></div></td></tr><tr><td><div><table><tr><td><div>Demo</div></td></tr><tr><td><div>False</div></td></tr><tr><td><div>http://web2py.com/demo_admin</div></td></tr></table></div></td></tr><tr><td><div><table><tr><td><div>Quick Examples</div></td></tr><tr><td><div>False</div></td></tr><tr><td><div>http://web2py.com/examples/default/examples</div></td></tr></table></div></td></tr><tr><td><div><table><tr><td><div>FAQ</div></td></tr><tr><td><div>False</div></td></tr><tr><td><div>http://web2py.com/AlterEgo</div></td></tr></table></div></td></tr><tr><td><div><table><tr><td><div>Videos</div></td></tr><tr><td><div>False</div></td></tr><tr><td><div>http://www.web2py.com/examples/default/videos/</div></td></tr></table></div></td></tr><tr><td><div><table><tr><td><div>Free Applications</div></td></tr><tr><td><div>False</div></td></tr><tr><td><div>http://web2py.com/appliances</div></td></tr></table></div></td></tr><tr><td><div><table><tr><td><div>Plugins</div></td></tr><tr><td><div>False</div></td></tr><tr><td><div>http://web2py.com/plugins</div></td></tr></table></div></td></tr><tr><td><div><table><tr><td><div>Recipes</div></td></tr><tr><td><div>False</div></td></tr><tr><td><div>http://web2pyslices.com/</div></td></tr></table></div></td></tr></table></div></td></tr></table></div></td></tr><tr><td><div><table><tr><td><div>Documentation</div></td></tr><tr><td><div>False</div></td></tr><tr><td><div>#</div></td></tr><tr><td><div><table><tr><td><div><table><tr><td><div>Online book</div></td></tr><tr><td><div>False</div></td></tr><tr><td><div>http://www.web2py.com/book</div></td></tr></table></div></td></tr><tr><td><div><table><tr><td><div>Preface</div></td></tr><tr><td><div>False</div></td></tr><tr><td><div>http://www.web2py.com/book/default/chapter/00</div></td></tr></table></div></td></tr><tr><td><div><table><tr><td><div>Introduction</div></td></tr><tr><td><div>False</div></td></tr><tr><td><div>http://www.web2py.com/book/default/chapter/01</div></td></tr></table></div></td></tr><tr><td><div><table><tr><td><div>Python</div></td></tr><tr><td><div>False</div></td></tr><tr><td><div>http://www.web2py.com/book/default/chapter/02</div></td></tr></table></div></td></tr><tr><td><div><table><tr><td><div>Overview</div></td></tr><tr><td><div>False</div></td></tr><tr><td><div>http://www.web2py.com/book/default/chapter/03</div></td></tr></table></div></td></tr><tr><td><div><table><tr><td><div>The Core</div></td></tr><tr><td><div>False</div></td></tr><tr><td><div>http://www.web2py.com/book/default/chapter/04</div></td></tr></table></div></td></tr><tr><td><div><table><tr><td><div>The Views</div></td></tr><tr><td><div>False</div></td></tr><tr><td><div>http://www.web2py.com/book/default/chapter/05</div></td></tr></table></div></td></tr><tr><td><div><table><tr><td><div>Database</div></td></tr><tr><td><div>False</div></td></tr><tr><td><div>http://www.web2py.com/book/default/chapter/06</div></td></tr></table></div></td></tr><tr><td><div><table><tr><td><div>Forms and Validators</div></td></tr><tr><td><div>False</div></td></tr><tr><td><div>http://www.web2py.com/book/default/chapter/07</div></td></tr></table></div></td></tr><tr><td><div><table><tr><td><div>Email and SMS</div></td></tr><tr><td><div>False</div></td></tr><tr><td><div>http://www.web2py.com/book/default/chapter/08</div></td></tr></table></div></td></tr><tr><td><div><table><tr><td><div>Access Control</div></td></tr><tr><td><div>False</div></td></tr><tr><td><div>http://www.web2py.com/book/default/chapter/09</div></td></tr></table></div></td></tr><tr><td><div><table><tr><td><div>Services</div></td></tr><tr><td><div>False</div></td></tr><tr><td><div>http://www.web2py.com/book/default/chapter/10</div></td></tr></table></div></td></tr><tr><td><div><table><tr><td><div>Ajax Recipes</div></td></tr><tr><td><div>False</div></td></tr><tr><td><div>http://www.web2py.com/book/default/chapter/11</div></td></tr></table></div></td></tr><tr><td><div><table><tr><td><div>Components and Plugins</div></td></tr><tr><td><div>False</div></td></tr><tr><td><div>http://www.web2py.com/book/default/chapter/12</div></td></tr></table></div></td></tr><tr><td><div><table><tr><td><div>Deployment Recipes</div></td></tr><tr><td><div>False</div></td></tr><tr><td><div>http://www.web2py.com/book/default/chapter/13</div></td></tr></table></div></td></tr><tr><td><div><table><tr><td><div>Other Recipes</div></td></tr><tr><td><div>False</div></td></tr><tr><td><div>http://www.web2py.com/book/default/chapter/14</div></td></tr></table></div></td></tr><tr><td><div><table><tr><td><div>Helping web2py</div></td></tr><tr><td><div>False</div></td></tr><tr><td><div>http://www.web2py.com/book/default/chapter/15</div></td></tr></table></div></td></tr><tr><td><div><table><tr><td><div>Buy web2py\'s book</div></td></tr><tr><td><div>False</div></td></tr><tr><td><div>http://stores.lulu.com/web2py</div></td></tr></table></div></td></tr></table></div></td></tr></table></div></td></tr><tr><td><div><table><tr><td><div>Community</div></td></tr><tr><td><div>False</div></td></tr><tr><td><div>None</div></td></tr><tr><td><div><table><tr><td><div><table><tr><td><div>Groups</div></td></tr><tr><td><div>False</div></td></tr><tr><td><div>http://www.web2py.com/examples/default/usergroups</div></td></tr></table></div></td></tr><tr><td><div><table><tr><td><div>Twitter</div></td></tr><tr><td><div>False</div></td></tr><tr><td><div>http://twitter.com/web2py</div></td></tr></table></div></td></tr><tr><td><div><table><tr><td><div>Live Chat</div></td></tr><tr><td><div>False</div></td></tr><tr><td><div>http://webchat.freenode.net/?channels=web2py</div></td></tr></table></div></td></tr></table></div></td></tr></table></div></td></tr></table></div></td></tr><tr><td style="font-weight:bold;vertical-align:top;">meta</td><td style="vertical-align:top;">:</td><td><div><table><tr><td style="font-weight:bold;vertical-align:top;">author</td><td style="vertical-align:top;">:</td><td><div>Your Name &lt;you@example.com&gt;</div></td></tr><tr><td style="font-weight:bold;vertical-align:top;">description</td><td style="vertical-align:top;">:</td><td><div>a cool new app</div></td></tr><tr><td style="font-weight:bold;vertical-align:top;">generator</td><td style="vertical-align:top;">:</td><td><div>Web2py Web Framework</div></td></tr><tr><td style="font-weight:bold;vertical-align:top;">keywords</td><td style="vertical-align:top;">:</td><td><div><table><tr><td><div>web2py</div></td></tr><tr><td><div>python</div></td></tr><tr><td><div>framework</div></td></tr></table></div></td></tr></table></div></td></tr><tr><td style="font-weight:bold;vertical-align:top;">models_to_run</td><td style="vertical-align:top;">:</td><td><div><table><tr><td><div>^\\w+\\.py$</div></td></tr><tr><td><div>^api/\\w+\\.py$</div></td></tr><tr><td><div>^api/call/\\w+\\.py$</div></td></tr></table></div></td></tr><tr><td style="font-weight:bold;vertical-align:top;">postprocessing</td><td style="vertical-align:top;">:</td><td><div><table></table></div></td></tr><tr><td style="font-weight:bold;vertical-align:top;">session_client</td><td style="vertical-align:top;">:</td><td><div>127.0.0.1</div></td></tr><tr><td style="font-weight:bold;vertical-align:top;">session_cookie_compression_level</td><td style="vertical-align:top;">:</td><td><div>None</div></td></tr><tr><td style="font-weight:bold;vertical-align:top;">session_cookie_expires</td><td style="vertical-align:top;">:</td><td><div>None</div></td></tr><tr><td style="font-weight:bold;vertical-align:top;">session_data_name</td><td style="vertical-align:top;">:</td><td><div>session_data_app1</div></td></tr><tr><td style="font-weight:bold;vertical-align:top;">session_file</td><td style="vertical-align:top;">:</td><td><div>None</div></td></tr><tr><td style="font-weight:bold;vertical-align:top;">session_filename</td><td style="vertical-align:top;">:</td><td><div>/home/cc5985/web2py/web2py/applications/app1/sessions/127.0.0.1-9998ccb6-dad8-4cde-b70b-08f626864948</div></td></tr><tr><td style="font-weight:bold;vertical-align:top;">session_hash</td><td style="vertical-align:top;">:</td><td><div>c0762cbf4baf7f9af97c051e7fcb8083</div></td></tr><tr><td style="font-weight:bold;vertical-align:top;">session_id</td><td style="vertical-align:top;">:</td><td><div>127.0.0.1-9998ccb6-dad8-4cde-b70b-08f626864948</div></td></tr><tr><td style="font-weight:bold;vertical-align:top;">session_id_name</td><td style="vertical-align:top;">:</td><td><div>session_id_app1</div></td></tr><tr><td style="font-weight:bold;vertical-align:top;">session_masterapp</td><td style="vertical-align:top;">:</td><td><div>app1</div></td></tr><tr><td style="font-weight:bold;vertical-align:top;">session_new</td><td style="vertical-align:top;">:</td><td><div>True</div></td></tr><tr><td style="font-weight:bold;vertical-align:top;">session_storage_type</td><td style="vertical-align:top;">:</td><td><div>file</div></td></tr><tr><td style="font-weight:bold;vertical-align:top;">status</td><td style="vertical-align:top;">:</td><td><div>200</div></td></tr><tr><td style="font-weight:bold;vertical-align:top;">view</td><td style="vertical-align:top;">:</td><td><div>api/call.html</div></td></tr></table></div>'
tRp379
sS'locals'
p380
(dp381
S'url'
p382
S"u'test/accounts/GCHZDZXYLZ76XADS7735LK3OJUFZ2TBSXAR23YXKXCXXHUEEVT5C37PY'"
p383
sS'self'
p384
S'<PreparedRequest [GET]>'
p385
sS'auth'
p386
S'None'
p387
sS'fragment'
p388
S'None'
p389
sS'host'
p390
S"u'test'"
p391
sS'params'
p392
S'OrderedDict()'
p393
sS'error'
p394
S'"Invalid URL \'test/accounts/GCHZDZXYLZ76XADS7735L...LZ76XADS7735LK3OJUFZ2TBSXAR23YXKXCXXHUEEVT5C37PY?"'
p395
sS'query'
p396
S'None'
p397
sS'path'
p398
S"u'/accounts/GCHZDZXYLZ76XADS7735LK3OJUFZ2TBSXAR23YXKXCXXHUEEVT5C37PY'"
p399
sS'scheme'
p400
S'None'
p401
sS'port'
p402
S'None'
p403
sssS'traceback'
p404
S'Traceback (most recent call last):\n  File "/home/cc5985/web2py/web2py/gluon/restricted.py", line 219, in restricted\n    exec(ccode, environment)\n  File "/home/cc5985/web2py/web2py/applications/app1/controllers/api.py", line 195, in <module>\n  File "/home/cc5985/web2py/web2py/gluon/globals.py", line 420, in <lambda>\n    self._caller = lambda f: f()\n  File "/home/cc5985/web2py/web2py/applications/app1/controllers/api.py", line 18, in call\n    return service()\n  File "/home/cc5985/web2py/web2py/gluon/tools.py", line 5473, in __call__\n    return self.serve_run(request.args[1:])\n  File "/home/cc5985/web2py/web2py/gluon/tools.py", line 5090, in serve_run\n    *args[1:], **dict(request.vars)))\n  File "/home/cc5985/web2py/web2py/gluon/tools.py", line 5506, in call_service_function\n    return f(*a, **b)\n  File "/home/cc5985/web2py/web2py/applications/app1/controllers/api.py", line 60, in balances\n    response=json.loads(requests.get(BASE_URL+\'/accounts/\'+id).text)\n  File "/home/cc5985/web2py/web2py/applications/app1/venv/local/lib/python2.7/site-packages/requests/api.py", line 72, in get\n    return request(\'get\', url, params=params, **kwargs)\n  File "/home/cc5985/web2py/web2py/applications/app1/venv/local/lib/python2.7/site-packages/requests/api.py", line 58, in request\n    return session.request(method=method, url=url, **kwargs)\n  File "/home/cc5985/web2py/web2py/applications/app1/venv/local/lib/python2.7/site-packages/requests/sessions.py", line 498, in request\n    prep = self.prepare_request(req)\n  File "/home/cc5985/web2py/web2py/applications/app1/venv/local/lib/python2.7/site-packages/requests/sessions.py", line 441, in prepare_request\n    hooks=merge_hooks(request.hooks, self.hooks),\n  File "/home/cc5985/web2py/web2py/applications/app1/venv/local/lib/python2.7/site-packages/requests/models.py", line 309, in prepare\n    self.prepare_url(url, params)\n  File "/home/cc5985/web2py/web2py/applications/app1/venv/local/lib/python2.7/site-packages/requests/models.py", line 383, in prepare_url\n    raise MissingSchema(error)\nMissingSchema: Invalid URL \'test/accounts/GCHZDZXYLZ76XADS7735LK3OJUFZ2TBSXAR23YXKXCXXHUEEVT5C37PY\': No schema supplied. Perhaps you meant http://test/accounts/GCHZDZXYLZ76XADS7735LK3OJUFZ2TBSXAR23YXKXCXXHUEEVT5C37PY?\n'
p405
s.