(dp1
S'output'
p2
S"<type 'exceptions.KeyError'> 'from'"
p3
sS'layer'
p4
S'/home/cc5985/web2py/web2py/applications/app1/controllers/api.py'
p5
sS'code'
p6
S'<code object <module> at 0x7fda8079e6b0, file "/home/cc5985/web2py/web2py/applications/app1/controllers/api.py", line 1>'
p7
sS'snapshot'
p8
(dp9
S'exception'
p10
(dp11
S'__getslice__'
p12
S"<method-wrapper '__getslice__' of exceptions.KeyError object>"
p13
sS'__str__'
p14
S"<method-wrapper '__str__' of exceptions.KeyError object>"
p15
sS'__reduce__'
p16
S'<built-in method __reduce__ of exceptions.KeyError object>'
p17
sS'__dict__'
p18
S'{}'
p19
sS'message'
p20
S"'from'"
p21
sS'__sizeof__'
p22
S'<built-in method __sizeof__ of exceptions.KeyError object>'
p23
sS'__init__'
p24
S"<method-wrapper '__init__' of exceptions.KeyError object>"
p25
sS'__setattr__'
p26
S"<method-wrapper '__setattr__' of exceptions.KeyError object>"
p27
sS'__reduce_ex__'
p28
S'<built-in method __reduce_ex__ of exceptions.KeyError object>'
p29
sS'__new__'
p30
S'<built-in method __new__ of type object>'
p31
sS'__format__'
p32
S'<built-in method __format__ of exceptions.KeyError object>'
p33
sS'__class__'
p34
S"<type 'exceptions.KeyError'>"
p35
sS'__doc__'
p36
S"'Mapping key not found.'"
p37
sS'__getitem__'
p38
S"<method-wrapper '__getitem__' of exceptions.KeyError object>"
p39
sS'__setstate__'
p40
S'<built-in method __setstate__ of exceptions.KeyError object>'
p41
sS'__getattribute__'
p42
S"<method-wrapper '__getattribute__' of exceptions.KeyError object>"
p43
sS'args'
p44
S"('from',)"
p45
sS'__subclasshook__'
p46
S'<built-in method __subclasshook__ of type object>'
p47
sS'__unicode__'
p48
S'<built-in method __unicode__ of exceptions.KeyError object>'
p49
sS'__delattr__'
p50
S"<method-wrapper '__delattr__' of exceptions.KeyError object>"
p51
sS'__repr__'
p52
S"<method-wrapper '__repr__' of exceptions.KeyError object>"
p53
sS'__hash__'
p54
S"<method-wrapper '__hash__' of exceptions.KeyError object>"
p55
ssS'evalue'
p56
S"'from'"
p57
sS'request'
p58
cgluon.html
XML_unpickle
p59
(S's\xb2v\x00\x00<div><table><tr><td style="font-weight:bold;vertical-align:top;">ajax</td><td style="vertical-align:top;">:</td><td><div>False</div></td></tr><tr><td style="font-weight:bold;vertical-align:top;">application</td><td style="vertical-align:top;">:</td><td><div>app1</div></td></tr><tr><td style="font-weight:bold;vertical-align:top;">args</td><td style="vertical-align:top;">:</td><td><div><table><tr><td><div>run</div></td></tr><tr><td><div>transactions</div></td></tr></table></div></td></tr><tr><td style="font-weight:bold;vertical-align:top;">cid</td><td style="vertical-align:top;">:</td><td><div>None</div></td></tr><tr><td style="font-weight:bold;vertical-align:top;">client</td><td style="vertical-align:top;">:</td><td><div>127.0.0.1</div></td></tr><tr><td style="font-weight:bold;vertical-align:top;">controller</td><td style="vertical-align:top;">:</td><td><div>api</div></td></tr><tr><td style="font-weight:bold;vertical-align:top;">cookies</td><td style="vertical-align:top;">:</td><td><div><table><tr><td style="font-weight:bold;vertical-align:top;">PGADMIN_LANGUAGE</td><td style="vertical-align:top;">:</td><td><div>en<table><tr><td style="font-weight:bold;vertical-align:top;">comment</td><td style="vertical-align:top;">:</td><td><div></div></td></tr><tr><td style="font-weight:bold;vertical-align:top;">domain</td><td style="vertical-align:top;">:</td><td><div></div></td></tr><tr><td style="font-weight:bold;vertical-align:top;">expires</td><td style="vertical-align:top;">:</td><td><div></div></td></tr><tr><td style="font-weight:bold;vertical-align:top;">httponly</td><td style="vertical-align:top;">:</td><td><div></div></td></tr><tr><td style="font-weight:bold;vertical-align:top;">max-age</td><td style="vertical-align:top;">:</td><td><div></div></td></tr><tr><td style="font-weight:bold;vertical-align:top;">path</td><td style="vertical-align:top;">:</td><td><div></div></td></tr><tr><td style="font-weight:bold;vertical-align:top;">secure</td><td style="vertical-align:top;">:</td><td><div></div></td></tr><tr><td style="font-weight:bold;vertical-align:top;">version</td><td style="vertical-align:top;">:</td><td><div></div></td></tr></table></div></td></tr><tr><td style="font-weight:bold;vertical-align:top;">adminLanguage</td><td style="vertical-align:top;">:</td><td><div>zh<table><tr><td style="font-weight:bold;vertical-align:top;">comment</td><td style="vertical-align:top;">:</td><td><div></div></td></tr><tr><td style="font-weight:bold;vertical-align:top;">domain</td><td style="vertical-align:top;">:</td><td><div></div></td></tr><tr><td style="font-weight:bold;vertical-align:top;">expires</td><td style="vertical-align:top;">:</td><td><div></div></td></tr><tr><td style="font-weight:bold;vertical-align:top;">httponly</td><td style="vertical-align:top;">:</td><td><div></div></td></tr><tr><td style="font-weight:bold;vertical-align:top;">max-age</td><td style="vertical-align:top;">:</td><td><div></div></td></tr><tr><td style="font-weight:bold;vertical-align:top;">path</td><td style="vertical-align:top;">:</td><td><div></div></td></tr><tr><td style="font-weight:bold;vertical-align:top;">secure</td><td style="vertical-align:top;">:</td><td><div></div></td></tr><tr><td style="font-weight:bold;vertical-align:top;">version</td><td style="vertical-align:top;">:</td><td><div></div></td></tr></table></div></td></tr><tr><td style="font-weight:bold;vertical-align:top;">pga4_session</td><td style="vertical-align:top;">:</td><td><div>b17f8d6f-4f60-4c35-97a8-4231024d8610!NMc2rNqZ3v24RlWDyZ08z0LZ+iY=<table><tr><td style="font-weight:bold;vertical-align:top;">comment</td><td style="vertical-align:top;">:</td><td><div></div></td></tr><tr><td style="font-weight:bold;vertical-align:top;">domain</td><td style="vertical-align:top;">:</td><td><div></div></td></tr><tr><td style="font-weight:bold;vertical-align:top;">expires</td><td style="vertical-align:top;">:</td><td><div></div></td></tr><tr><td style="font-weight:bold;vertical-align:top;">httponly</td><td style="vertical-align:top;">:</td><td><div></div></td></tr><tr><td style="font-weight:bold;vertical-align:top;">max-age</td><td style="vertical-align:top;">:</td><td><div></div></td></tr><tr><td style="font-weight:bold;vertical-align:top;">path</td><td style="vertical-align:top;">:</td><td><div></div></td></tr><tr><td style="font-weight:bold;vertical-align:top;">secure</td><td style="vertical-align:top;">:</td><td><div></div></td></tr><tr><td style="font-weight:bold;vertical-align:top;">version</td><td style="vertical-align:top;">:</td><td><div></div></td></tr></table></div></td></tr><tr><td style="font-weight:bold;vertical-align:top;">session_id_admin</td><td style="vertical-align:top;">:</td><td><div>127.0.0.1-5e71cd66-3b7d-4c65-adc7-8ed76961285c<table><tr><td style="font-weight:bold;vertical-align:top;">comment</td><td style="vertical-align:top;">:</td><td><div></div></td></tr><tr><td style="font-weight:bold;vertical-align:top;">domain</td><td style="vertical-align:top;">:</td><td><div></div></td></tr><tr><td style="font-weight:bold;vertical-align:top;">expires</td><td style="vertical-align:top;">:</td><td><div></div></td></tr><tr><td style="font-weight:bold;vertical-align:top;">httponly</td><td style="vertical-align:top;">:</td><td><div></div></td></tr><tr><td style="font-weight:bold;vertical-align:top;">max-age</td><td style="vertical-align:top;">:</td><td><div></div></td></tr><tr><td style="font-weight:bold;vertical-align:top;">path</td><td style="vertical-align:top;">:</td><td><div></div></td></tr><tr><td style="font-weight:bold;vertical-align:top;">secure</td><td style="vertical-align:top;">:</td><td><div></div></td></tr><tr><td style="font-weight:bold;vertical-align:top;">version</td><td style="vertical-align:top;">:</td><td><div></div></td></tr></table></div></td></tr><tr><td style="font-weight:bold;vertical-align:top;">session_id_app1</td><td style="vertical-align:top;">:</td><td><div>127.0.0.1-5c1ed551-d0e0-4382-9b01-bf4efc48a769<table><tr><td style="font-weight:bold;vertical-align:top;">comment</td><td style="vertical-align:top;">:</td><td><div></div></td></tr><tr><td style="font-weight:bold;vertical-align:top;">domain</td><td style="vertical-align:top;">:</td><td><div></div></td></tr><tr><td style="font-weight:bold;vertical-align:top;">expires</td><td style="vertical-align:top;">:</td><td><div></div></td></tr><tr><td style="font-weight:bold;vertical-align:top;">httponly</td><td style="vertical-align:top;">:</td><td><div></div></td></tr><tr><td style="font-weight:bold;vertical-align:top;">max-age</td><td style="vertical-align:top;">:</td><td><div></div></td></tr><tr><td style="font-weight:bold;vertical-align:top;">path</td><td style="vertical-align:top;">:</td><td><div></div></td></tr><tr><td style="font-weight:bold;vertical-align:top;">secure</td><td style="vertical-align:top;">:</td><td><div></div></td></tr><tr><td style="font-weight:bold;vertical-align:top;">version</td><td style="vertical-align:top;">:</td><td><div></div></td></tr></table></div></td></tr><tr><td style="font-weight:bold;vertical-align:top;">session_id_hello</td><td style="vertical-align:top;">:</td><td><div>127.0.0.1-c670ab94-0430-4259-ad19-307c971103d5<table><tr><td style="font-weight:bold;vertical-align:top;">comment</td><td style="vertical-align:top;">:</td><td><div></div></td></tr><tr><td style="font-weight:bold;vertical-align:top;">domain</td><td style="vertical-align:top;">:</td><td><div></div></td></tr><tr><td style="font-weight:bold;vertical-align:top;">expires</td><td style="vertical-align:top;">:</td><td><div></div></td></tr><tr><td style="font-weight:bold;vertical-align:top;">httponly</td><td style="vertical-align:top;">:</td><td><div></div></td></tr><tr><td style="font-weight:bold;vertical-align:top;">max-age</td><td style="vertical-align:top;">:</td><td><div></div></td></tr><tr><td style="font-weight:bold;vertical-align:top;">path</td><td style="vertical-align:top;">:</td><td><div></div></td></tr><tr><td style="font-weight:bold;vertical-align:top;">secure</td><td style="vertical-align:top;">:</td><td><div></div></td></tr><tr><td style="font-weight:bold;vertical-align:top;">version</td><td style="vertical-align:top;">:</td><td><div></div></td></tr></table></div></td></tr><tr><td style="font-weight:bold;vertical-align:top;">session_id_images</td><td style="vertical-align:top;">:</td><td><div>127.0.0.1-96a1c6e9-4f42-40bf-8e2a-56582904dcad<table><tr><td style="font-weight:bold;vertical-align:top;">comment</td><td style="vertical-align:top;">:</td><td><div></div></td></tr><tr><td style="font-weight:bold;vertical-align:top;">domain</td><td style="vertical-align:top;">:</td><td><div></div></td></tr><tr><td style="font-weight:bold;vertical-align:top;">expires</td><td style="vertical-align:top;">:</td><td><div></div></td></tr><tr><td style="font-weight:bold;vertical-align:top;">httponly</td><td style="vertical-align:top;">:</td><td><div></div></td></tr><tr><td style="font-weight:bold;vertical-align:top;">max-age</td><td style="vertical-align:top;">:</td><td><div></div></td></tr><tr><td style="font-weight:bold;vertical-align:top;">path</td><td style="vertical-align:top;">:</td><td><div></div></td></tr><tr><td style="font-weight:bold;vertical-align:top;">secure</td><td style="vertical-align:top;">:</td><td><div></div></td></tr><tr><td style="font-weight:bold;vertical-align:top;">version</td><td style="vertical-align:top;">:</td><td><div></div></td></tr></table></div></td></tr><tr><td style="font-weight:bold;vertical-align:top;">session_id_welcome</td><td style="vertical-align:top;">:</td><td><div>127.0.0.1-a2d17cbf-7782-4534-9632-440cabc5e777<table><tr><td style="font-weight:bold;vertical-align:top;">comment</td><td style="vertical-align:top;">:</td><td><div></div></td></tr><tr><td style="font-weight:bold;vertical-align:top;">domain</td><td style="vertical-align:top;">:</td><td><div></div></td></tr><tr><td style="font-weight:bold;vertical-align:top;">expires</td><td style="vertical-align:top;">:</td><td><div></div></td></tr><tr><td style="font-weight:bold;vertical-align:top;">httponly</td><td style="vertical-align:top;">:</td><td><div></div></td></tr><tr><td style="font-weight:bold;vertical-align:top;">max-age</td><td style="vertical-align:top;">:</td><td><div></div></td></tr><tr><td style="font-weight:bold;vertical-align:top;">path</td><td style="vertical-align:top;">:</td><td><div></div></td></tr><tr><td style="font-weight:bold;vertical-align:top;">secure</td><td style="vertical-align:top;">:</td><td><div></div></td></tr><tr><td style="font-weight:bold;vertical-align:top;">version</td><td style="vertical-align:top;">:</td><td><div></div></td></tr></table></div></td></tr></table></div></td></tr><tr><td style="font-weight:bold;vertical-align:top;">env</td><td style="vertical-align:top;">:</td><td><div><table><tr><td style="font-weight:bold;vertical-align:top;">HTTP_ACCEPT</td><td style="vertical-align:top;">:</td><td><div>text/html,application/xhtml+xml,application/xml;q=0.9,image/webp,image/apng,*/*;q=0.8</div></td></tr><tr><td style="font-weight:bold;vertical-align:top;">HTTP_ACCEPT_ENCODING</td><td style="vertical-align:top;">:</td><td><div>gzip, deflate, br</div></td></tr><tr><td style="font-weight:bold;vertical-align:top;">HTTP_ACCEPT_LANGUAGE</td><td style="vertical-align:top;">:</td><td><div>en-US,en;q=0.9</div></td></tr><tr><td style="font-weight:bold;vertical-align:top;">HTTP_CACHE_CONTROL</td><td style="vertical-align:top;">:</td><td><div>max-age=0</div></td></tr><tr><td style="font-weight:bold;vertical-align:top;">HTTP_CONNECTION</td><td style="vertical-align:top;">:</td><td><div>keep-alive</div></td></tr><tr><td style="font-weight:bold;vertical-align:top;">HTTP_COOKIE</td><td style="vertical-align:top;">:</td><td><div>session_id_admin=127.0.0.1-5e71cd66-3b7d-4c65-adc7-8ed76961285c; adminLanguage=zh; session_id_hello=127.0.0.1-c670ab94-0430-4259-ad19-307c971103d5; session_id_images=127.0.0.1-96a1c6e9-4f42-40bf-8e2a-56582904dcad; session_id_welcome=127.0.0.1-a2d17cbf-7782-4534-9632-440cabc5e777; pga4_session=b17f8d6f-4f60-4c35-97a8-4231024d8610!NMc2rNqZ3v24RlWDyZ08z0LZ+iY=; PGADMIN_LANGUAGE=en; session_id_app1=127.0.0.1-5c1ed551-d0e0-4382-9b01-bf4efc48a769</div></td></tr><tr><td style="font-weight:bold;vertical-align:top;">HTTP_HOST</td><td style="vertical-align:top;">:</td><td><div>127.0.0.1:8000</div></td></tr><tr><td style="font-weight:bold;vertical-align:top;">HTTP_UPGRADE_INSECURE_REQUESTS</td><td style="vertical-align:top;">:</td><td><div>1</div></td></tr><tr><td style="font-weight:bold;vertical-align:top;">HTTP_USER_AGENT</td><td style="vertical-align:top;">:</td><td><div>Mozilla/5.0 (X11; Linux x86_64) AppleWebKit/537.36 (KHTML, like Gecko) Chrome/64.0.3282.140 Safari/537.36</div></td></tr><tr><td style="font-weight:bold;vertical-align:top;">PATH_INFO</td><td style="vertical-align:top;">:</td><td><div>/app1/api/call/run/transactions</div></td></tr><tr><td style="font-weight:bold;vertical-align:top;">QUERY_STRING</td><td style="vertical-align:top;">:</td><td><div>id=GCHZDZXYLZ76XADS7735LK3OJUFZ2TBSXAR23YXKXCXXHUEEVT5C37PY</div></td></tr><tr><td style="font-weight:bold;vertical-align:top;">REMOTE_ADDR</td><td style="vertical-align:top;">:</td><td><div>127.0.0.1</div></td></tr><tr><td style="font-weight:bold;vertical-align:top;">REMOTE_PORT</td><td style="vertical-align:top;">:</td><td><div>60006</div></td></tr><tr><td style="font-weight:bold;vertical-align:top;">REQUEST_METHOD</td><td style="vertical-align:top;">:</td><td><div>GET</div></td></tr><tr><td style="font-weight:bold;vertical-align:top;">SCRIPT_NAME</td><td style="vertical-align:top;">:</td><td><div></div></td></tr><tr><td style="font-weight:bold;vertical-align:top;">SERVER_NAME</td><td style="vertical-align:top;">:</td><td><div>ubuntu</div></td></tr><tr><td style="font-weight:bold;vertical-align:top;">SERVER_PORT</td><td style="vertical-align:top;">:</td><td><div>8000</div></td></tr><tr><td style="font-weight:bold;vertical-align:top;">SERVER_PROTOCOL</td><td style="vertical-align:top;">:</td><td><div>HTTP/1.1</div></td></tr><tr><td style="font-weight:bold;vertical-align:top;">SERVER_SOFTWARE</td><td style="vertical-align:top;">:</td><td><div>Rocket 1.2.6</div></td></tr><tr><td style="font-weight:bold;vertical-align:top;">app_folders</td><td style="vertical-align:top;">:</td><td><div>set([&#x27;/home/cc5985/web2py/web2py/applications/welcome/&#x27;, &#x27;/home/cc5985/web2py/web2py/applications/app1/&#x27;, &#x27;/home/cc5985/web2py/web2py/applications/admin/&#x27;])</div></td></tr><tr><td style="font-weight:bold;vertical-align:top;">applications_parent</td><td style="vertical-align:top;">:</td><td><div>/home/cc5985/web2py/web2py</div></td></tr><tr><td style="font-weight:bold;vertical-align:top;">cmd_args</td><td style="vertical-align:top;">:</td><td><div><table></table></div></td></tr><tr><td style="font-weight:bold;vertical-align:top;">cmd_options</td><td style="vertical-align:top;">:</td><td><div>&lt;Values at 0x7fdaa0f5bf38: {&#x27;verbose&#x27;: False, &#x27;ip&#x27;: &#x27;127.0.0.1&#x27;, &#x27;debuglevel&#x27;: 30, &#x27;with_scheduler&#x27;: False, &#x27;shutdown_timeout&#x27;: 5, &#x27;taskbar&#x27;: False, &#x27;with_coverage&#x27;: False, &#x27;pid_filename&#x27;: &#x27;httpserver.pid&#x27;, &#x27;maxthreads&#x27;: None, &#x27;softcron&#x27;: False, &#x27;server_name&#x27;: &#x27;ubuntu&#x27;, &#x27;bpython&#x27;: False, &#x27;nogui&#x27;: False, &#x27;port&#x27;: 8000, &#x27;print_errors&#x27;: False, &#x27;extcron&#x27;: False, &#x27;runcron&#x27;: False, &#x27;run_system_tests&#x27;: False, &#x27;test&#x27;: None, &#x27;folder&#x27;: &#x27;/home/cc5985/web2py/web2py&#x27;, &#x27;config&#x27;: &#x27;&#x27;, &#x27;minthreads&#x27;: None, &#x27;shell&#x27;: None, &#x27;run&#x27;: &#x27;&#x27;, &#x27;log_filename&#x27;: &#x27;httpserver.log&#x27;, &#x27;profiler_dir&#x27;: None, &#x27;args&#x27;: [&#x27;&#x27;], &#x27;socket_timeout&#x27;: 5, &#x27;ssl_ca_certificate&#x27;: None, &#x27;scheduler&#x27;: None, &#x27;interfaces&#x27;: None, &#x27;ssl_private_key&#x27;: &#x27;&#x27;, &#x27;gae&#x27;: None, &#x27;password&#x27;: &#x27;******&#x27;, &#x27;request_queue_size&#x27;: 5, &#x27;ssl_certificate&#x27;: &#x27;&#x27;, &#x27;cronjob&#x27;: False, &#x27;numthreads&#x27;: None, &#x27;quiet&#x27;: False, &#x27;import_models&#x27;: False, &#x27;timeout&#x27;: 10, &#x27;plain&#x27;: False, &#x27;nobanner&#x27;: False}&gt;</div></td></tr><tr><td style="font-weight:bold;vertical-align:top;">db_sessions</td><td style="vertical-align:top;">:</td><td><div>set([])</div></td></tr><tr><td style="font-weight:bold;vertical-align:top;">debugging</td><td style="vertical-align:top;">:</td><td><div>False</div></td></tr><tr><td style="font-weight:bold;vertical-align:top;">gluon_parent</td><td style="vertical-align:top;">:</td><td><div>/home/cc5985/web2py/web2py</div></td></tr><tr><td style="font-weight:bold;vertical-align:top;">http_accept</td><td style="vertical-align:top;">:</td><td><div>text/html,application/xhtml+xml,application/xml;q=0.9,image/webp,image/apng,*/*;q=0.8</div></td></tr><tr><td style="font-weight:bold;vertical-align:top;">http_accept_encoding</td><td style="vertical-align:top;">:</td><td><div>gzip, deflate, br</div></td></tr><tr><td style="font-weight:bold;vertical-align:top;">http_accept_language</td><td style="vertical-align:top;">:</td><td><div>en-US,en;q=0.9</div></td></tr><tr><td style="font-weight:bold;vertical-align:top;">http_cache_control</td><td style="vertical-align:top;">:</td><td><div>max-age=0</div></td></tr><tr><td style="font-weight:bold;vertical-align:top;">http_connection</td><td style="vertical-align:top;">:</td><td><div>keep-alive</div></td></tr><tr><td style="font-weight:bold;vertical-align:top;">http_cookie</td><td style="vertical-align:top;">:</td><td><div>session_id_admin=127.0.0.1-5e71cd66-3b7d-4c65-adc7-8ed76961285c; adminLanguage=zh; session_id_hello=127.0.0.1-c670ab94-0430-4259-ad19-307c971103d5; session_id_images=127.0.0.1-96a1c6e9-4f42-40bf-8e2a-56582904dcad; session_id_welcome=127.0.0.1-a2d17cbf-7782-4534-9632-440cabc5e777; pga4_session=b17f8d6f-4f60-4c35-97a8-4231024d8610!NMc2rNqZ3v24RlWDyZ08z0LZ+iY=; PGADMIN_LANGUAGE=en; session_id_app1=127.0.0.1-5c1ed551-d0e0-4382-9b01-bf4efc48a769</div></td></tr><tr><td style="font-weight:bold;vertical-align:top;">http_host</td><td style="vertical-align:top;">:</td><td><div>127.0.0.1:8000</div></td></tr><tr><td style="font-weight:bold;vertical-align:top;">http_upgrade_insecure_requests</td><td style="vertical-align:top;">:</td><td><div>1</div></td></tr><tr><td style="font-weight:bold;vertical-align:top;">http_user_agent</td><td style="vertical-align:top;">:</td><td><div>Mozilla/5.0 (X11; Linux x86_64) AppleWebKit/537.36 (KHTML, like Gecko) Chrome/64.0.3282.140 Safari/537.36</div></td></tr><tr><td style="font-weight:bold;vertical-align:top;">is_jython</td><td style="vertical-align:top;">:</td><td><div>False</div></td></tr><tr><td style="font-weight:bold;vertical-align:top;">is_py2</td><td style="vertical-align:top;">:</td><td><div>True</div></td></tr><tr><td style="font-weight:bold;vertical-align:top;">is_pypy</td><td style="vertical-align:top;">:</td><td><div>False</div></td></tr><tr><td style="font-weight:bold;vertical-align:top;">is_source</td><td style="vertical-align:top;">:</td><td><div>True</div></td></tr><tr><td style="font-weight:bold;vertical-align:top;">local_hosts</td><td style="vertical-align:top;">:</td><td><div><table><tr><td><div>::1</div></td></tr><tr><td><div>127.0.1.1</div></td></tr><tr><td><div>::ffff:127.0.0.1</div></td></tr><tr><td><div>127.0.0.1</div></td></tr><tr><td><div>ubuntu</div></td></tr></table></div></td></tr><tr><td style="font-weight:bold;vertical-align:top;">path_info</td><td style="vertical-align:top;">:</td><td><div>/app1/api/call/run/transactions</div></td></tr><tr><td style="font-weight:bold;vertical-align:top;">query_string</td><td style="vertical-align:top;">:</td><td><div>id=GCHZDZXYLZ76XADS7735LK3OJUFZ2TBSXAR23YXKXCXXHUEEVT5C37PY</div></td></tr><tr><td style="font-weight:bold;vertical-align:top;">remote_addr</td><td style="vertical-align:top;">:</td><td><div>127.0.0.1</div></td></tr><tr><td style="font-weight:bold;vertical-align:top;">remote_port</td><td style="vertical-align:top;">:</td><td><div>60006</div></td></tr><tr><td style="font-weight:bold;vertical-align:top;">request_method</td><td style="vertical-align:top;">:</td><td><div>GET</div></td></tr><tr><td style="font-weight:bold;vertical-align:top;">request_uri</td><td style="vertical-align:top;">:</td><td><div>/app1/api/call/run/transactions?id=GCHZDZXYLZ76XADS7735LK3OJUFZ2TBSXAR23YXKXCXXHUEEVT5C37PY</div></td></tr><tr><td style="font-weight:bold;vertical-align:top;">script_name</td><td style="vertical-align:top;">:</td><td><div></div></td></tr><tr><td style="font-weight:bold;vertical-align:top;">server_name</td><td style="vertical-align:top;">:</td><td><div>ubuntu</div></td></tr><tr><td style="font-weight:bold;vertical-align:top;">server_port</td><td style="vertical-align:top;">:</td><td><div>8000</div></td></tr><tr><td style="font-weight:bold;vertical-align:top;">server_protocol</td><td style="vertical-align:top;">:</td><td><div>HTTP/1.1</div></td></tr><tr><td style="font-weight:bold;vertical-align:top;">server_software</td><td style="vertical-align:top;">:</td><td><div>Rocket 1.2.6</div></td></tr><tr><td style="font-weight:bold;vertical-align:top;">web2py_path</td><td style="vertical-align:top;">:</td><td><div>/home/cc5985/web2py/web2py</div></td></tr><tr><td style="font-weight:bold;vertical-align:top;">web2py_version</td><td style="vertical-align:top;">:</td><td><div>2.16.1-stable+timestamp.2017.11.14.05.54.25</div></td></tr><tr><td style="font-weight:bold;vertical-align:top;">wsgi.errors</td><td style="vertical-align:top;">:</td><td><div>&lt;open file &#x27;&lt;stderr&gt;&#x27;, mode &#x27;w&#x27; at 0x7fdab3c631e0&gt;</div></td></tr><tr><td style="font-weight:bold;vertical-align:top;">wsgi.file_wrapper</td><td style="vertical-align:top;">:</td><td><div>&lt;class wsgiref.util.FileWrapper at 0x7fdaa0f71d50&gt;</div></td></tr><tr><td style="font-weight:bold;vertical-align:top;">wsgi.input</td><td style="vertical-align:top;">:</td><td><div>&lt;socket._fileobject object at 0x7fda8079e8d0&gt;</div></td></tr><tr><td style="font-weight:bold;vertical-align:top;">wsgi.multiprocess</td><td style="vertical-align:top;">:</td><td><div>False</div></td></tr><tr><td style="font-weight:bold;vertical-align:top;">wsgi.multithread</td><td style="vertical-align:top;">:</td><td><div>True</div></td></tr><tr><td style="font-weight:bold;vertical-align:top;">wsgi.run_once</td><td style="vertical-align:top;">:</td><td><div>False</div></td></tr><tr><td style="font-weight:bold;vertical-align:top;">wsgi.url_scheme</td><td style="vertical-align:top;">:</td><td><div>http</div></td></tr><tr><td style="font-weight:bold;vertical-align:top;">wsgi.version</td><td style="vertical-align:top;">:</td><td><div><table><tr><td><div>1</div></td></tr><tr><td><div>0</div></td></tr></table></div></td></tr><tr><td style="font-weight:bold;vertical-align:top;">wsgi_errors</td><td style="vertical-align:top;">:</td><td><div>&lt;open file &#x27;&lt;stderr&gt;&#x27;, mode &#x27;w&#x27; at 0x7fdab3c631e0&gt;</div></td></tr><tr><td style="font-weight:bold;vertical-align:top;">wsgi_file_wrapper</td><td style="vertical-align:top;">:</td><td><div>&lt;class wsgiref.util.FileWrapper at 0x7fdaa0f71d50&gt;</div></td></tr><tr><td style="font-weight:bold;vertical-align:top;">wsgi_input</td><td style="vertical-align:top;">:</td><td><div>&lt;socket._fileobject object at 0x7fda8079e8d0&gt;</div></td></tr><tr><td style="font-weight:bold;vertical-align:top;">wsgi_multiprocess</td><td style="vertical-align:top;">:</td><td><div>False</div></td></tr><tr><td style="font-weight:bold;vertical-align:top;">wsgi_multithread</td><td style="vertical-align:top;">:</td><td><div>True</div></td></tr><tr><td style="font-weight:bold;vertical-align:top;">wsgi_run_once</td><td style="vertical-align:top;">:</td><td><div>False</div></td></tr><tr><td style="font-weight:bold;vertical-align:top;">wsgi_url_scheme</td><td style="vertical-align:top;">:</td><td><div>http</div></td></tr><tr><td style="font-weight:bold;vertical-align:top;">wsgi_version</td><td style="vertical-align:top;">:</td><td><div><table><tr><td><div>1</div></td></tr><tr><td><div>0</div></td></tr></table></div></td></tr></table></div></td></tr><tr><td style="font-weight:bold;vertical-align:top;">extension</td><td style="vertical-align:top;">:</td><td><div>html</div></td></tr><tr><td style="font-weight:bold;vertical-align:top;">folder</td><td style="vertical-align:top;">:</td><td><div>/home/cc5985/web2py/web2py/applications/app1/</div></td></tr><tr><td style="font-weight:bold;vertical-align:top;">function</td><td style="vertical-align:top;">:</td><td><div>call</div></td></tr><tr><td style="font-weight:bold;vertical-align:top;">global_settings</td><td style="vertical-align:top;">:</td><td><div><table><tr><td style="font-weight:bold;vertical-align:top;">app_folders</td><td style="vertical-align:top;">:</td><td><div>set([&#x27;/home/cc5985/web2py/web2py/applications/welcome/&#x27;, &#x27;/home/cc5985/web2py/web2py/applications/app1/&#x27;, &#x27;/home/cc5985/web2py/web2py/applications/admin/&#x27;])</div></td></tr><tr><td style="font-weight:bold;vertical-align:top;">applications_parent</td><td style="vertical-align:top;">:</td><td><div>/home/cc5985/web2py/web2py</div></td></tr><tr><td style="font-weight:bold;vertical-align:top;">cmd_args</td><td style="vertical-align:top;">:</td><td><div><table></table></div></td></tr><tr><td style="font-weight:bold;vertical-align:top;">cmd_options</td><td style="vertical-align:top;">:</td><td><div>&lt;Values at 0x7fdaa0f5bf38: {&#x27;verbose&#x27;: False, &#x27;ip&#x27;: &#x27;127.0.0.1&#x27;, &#x27;debuglevel&#x27;: 30, &#x27;with_scheduler&#x27;: False, &#x27;shutdown_timeout&#x27;: 5, &#x27;taskbar&#x27;: False, &#x27;with_coverage&#x27;: False, &#x27;pid_filename&#x27;: &#x27;httpserver.pid&#x27;, &#x27;maxthreads&#x27;: None, &#x27;softcron&#x27;: False, &#x27;server_name&#x27;: &#x27;ubuntu&#x27;, &#x27;bpython&#x27;: False, &#x27;nogui&#x27;: False, &#x27;port&#x27;: 8000, &#x27;print_errors&#x27;: False, &#x27;extcron&#x27;: False, &#x27;runcron&#x27;: False, &#x27;run_system_tests&#x27;: False, &#x27;test&#x27;: None, &#x27;folder&#x27;: &#x27;/home/cc5985/web2py/web2py&#x27;, &#x27;config&#x27;: &#x27;&#x27;, &#x27;minthreads&#x27;: None, &#x27;shell&#x27;: None, &#x27;run&#x27;: &#x27;&#x27;, &#x27;log_filename&#x27;: &#x27;httpserver.log&#x27;, &#x27;profiler_dir&#x27;: None, &#x27;args&#x27;: [&#x27;&#x27;], &#x27;socket_timeout&#x27;: 5, &#x27;ssl_ca_certificate&#x27;: None, &#x27;scheduler&#x27;: None, &#x27;interfaces&#x27;: None, &#x27;ssl_private_key&#x27;: &#x27;&#x27;, &#x27;gae&#x27;: None, &#x27;password&#x27;: &#x27;******&#x27;, &#x27;request_queue_size&#x27;: 5, &#x27;ssl_certificate&#x27;: &#x27;&#x27;, &#x27;cronjob&#x27;: False, &#x27;numthreads&#x27;: None, &#x27;quiet&#x27;: False, &#x27;import_models&#x27;: False, &#x27;timeout&#x27;: 10, &#x27;plain&#x27;: False, &#x27;nobanner&#x27;: False}&gt;</div></td></tr><tr><td style="font-weight:bold;vertical-align:top;">db_sessions</td><td style="vertical-align:top;">:</td><td><div>set([])</div></td></tr><tr><td style="font-weight:bold;vertical-align:top;">debugging</td><td style="vertical-align:top;">:</td><td><div>False</div></td></tr><tr><td style="font-weight:bold;vertical-align:top;">gluon_parent</td><td style="vertical-align:top;">:</td><td><div>/home/cc5985/web2py/web2py</div></td></tr><tr><td style="font-weight:bold;vertical-align:top;">is_jython</td><td style="vertical-align:top;">:</td><td><div>False</div></td></tr><tr><td style="font-weight:bold;vertical-align:top;">is_py2</td><td style="vertical-align:top;">:</td><td><div>True</div></td></tr><tr><td style="font-weight:bold;vertical-align:top;">is_pypy</td><td style="vertical-align:top;">:</td><td><div>False</div></td></tr><tr><td style="font-weight:bold;vertical-align:top;">is_source</td><td style="vertical-align:top;">:</td><td><div>True</div></td></tr><tr><td style="font-weight:bold;vertical-align:top;">local_hosts</td><td style="vertical-align:top;">:</td><td><div><table><tr><td><div>::1</div></td></tr><tr><td><div>127.0.1.1</div></td></tr><tr><td><div>::ffff:127.0.0.1</div></td></tr><tr><td><div>127.0.0.1</div></td></tr><tr><td><div>ubuntu</div></td></tr></table></div></td></tr><tr><td style="font-weight:bold;vertical-align:top;">web2py_version</td><td style="vertical-align:top;">:</td><td><div>2.16.1-stable+timestamp.2017.11.14.05.54.25</div></td></tr></table></div></td></tr><tr><td style="font-weight:bold;vertical-align:top;">is_https</td><td style="vertical-align:top;">:</td><td><div>False</div></td></tr><tr><td style="font-weight:bold;vertical-align:top;">is_local</td><td style="vertical-align:top;">:</td><td><div>True</div></td></tr><tr><td style="font-weight:bold;vertical-align:top;">is_restful</td><td style="vertical-align:top;">:</td><td><div>False</div></td></tr><tr><td style="font-weight:bold;vertical-align:top;">is_scheduler</td><td style="vertical-align:top;">:</td><td><div>False</div></td></tr><tr><td style="font-weight:bold;vertical-align:top;">is_shell</td><td style="vertical-align:top;">:</td><td><div>False</div></td></tr><tr><td style="font-weight:bold;vertical-align:top;">now</td><td style="vertical-align:top;">:</td><td><div>datetime.datetime(2018, 8, 15, 10, 23, 2, 427514)</div></td></tr><tr><td style="font-weight:bold;vertical-align:top;">raw_args</td><td style="vertical-align:top;">:</td><td><div>run/transactions</div></td></tr><tr><td style="font-weight:bold;vertical-align:top;">raw_extension</td><td style="vertical-align:top;">:</td><td><div>None</div></td></tr><tr><td style="font-weight:bold;vertical-align:top;">url</td><td style="vertical-align:top;">:</td><td><div>/app1/api/call/run/transactions</div></td></tr><tr><td style="font-weight:bold;vertical-align:top;">utcnow</td><td style="vertical-align:top;">:</td><td><div>datetime.datetime(2018, 8, 15, 2, 23, 2, 427559)</div></td></tr><tr><td style="font-weight:bold;vertical-align:top;">wsgi</td><td style="vertical-align:top;">:</td><td><div>&lt;gluon.main.LazyWSGI object at 0x7fda8034f390&gt;</div></td></tr></table></div>'
tRp60
sS'frames'
p61
(lp62
(dp63
S'file'
p64
S'/home/cc5985/web2py/web2py/gluon/restricted.py'
p65
sS'dump'
p66
(dp67
S'environment'
p68
S"{'A': <class 'gluon.html.A'>, 'ANY_OF': <class 'gluon.validators.ANY_OF'>, 'ASSIGNJS': <function ASSIGNJS>, 'AppConfig': <function AppConfig>, 'Auth': <class 'gluon.tools.Auth'>, 'B': <class 'gluon.html.B'>, 'BEAUTIFY': <class 'gluon.html.BEAUTIFY'>, 'BODY': <class 'gluon.html.BODY'>, 'BR': <class 'gluon.html.BR'>, 'BUTTON': <class 'gluon.html.BUTTON'>, ...}"
p69
sS'ccode'
p70
S'<code object <module> at 0x7fda8079e6b0, file "/...py/applications/app1/controllers/api.py", line 1>'
p71
ssS'lnum'
p72
I219
sS'lines'
p73
(dp74
I214
S'    if environment is None:'
p75
sI215
S'        environment = {}'
p76
sI216
S"    environment['__file__'] = layer"
p77
sI217
S"    environment['__name__'] = '__restricted__'"
p78
sI218
S'    try:'
p79
sI219
S'        exec(ccode, environment)'
p80
sI220
S'    except HTTP:'
p81
sI221
S'        raise'
p82
sI222
S'    except RestrictedError:'
p83
sI223
S'        # do not encapsulate (obfuscate) the original RestrictedError'
p84
ssS'call'
p85
S'(ccode=<code object <module> at 0x7fda8079e6b0, file "/...py/applications/app1/controllers/api.py", line 1>, environment={\'A\': <class \'gluon.html.A\'>, \'ANY_OF\': <class \'gluon.validators.ANY_OF\'>, \'ASSIGNJS\': <function ASSIGNJS>, \'AppConfig\': <function AppConfig>, \'Auth\': <class \'gluon.tools.Auth\'>, \'B\': <class \'gluon.html.B\'>, \'BEAUTIFY\': <class \'gluon.html.BEAUTIFY\'>, \'BODY\': <class \'gluon.html.BODY\'>, \'BR\': <class \'gluon.html.BR\'>, \'BUTTON\': <class \'gluon.html.BUTTON\'>, ...}, layer=\'/home/cc5985/web2py/web2py/applications/app1/controllers/api.py\', scode=<code object <module> at 0x7fda8079e6b0, file "/...py/applications/app1/controllers/api.py", line 1>)'
p86
sS'func'
p87
S'restricted'
p88
sa(dp89
g64
S'/home/cc5985/web2py/web2py/applications/app1/controllers/api.py'
p90
sg66
(dp91
sg72
I195
sg73
(dp92
I192
S''
sI193
S''
sI184
S"    '''"
p93
sI185
S'    if limit*page > total_limit and total_limit!=0:'
p94
sI186
S'        return []'
p95
sI187
S'    from pg_test import PsycoPG'
p96
sI188
S"    my_psycopg=PsycoPG('horizon_testnet','cc5985','caichong','localhost','5432')"
p97
sI189
S'    # select * from history_transactions where created_at not in (select created_at from history_transactions order by created_at limit 100) order by created_at limit 50'
p98
sI190
S"    rows=my_psycopg.select('select * from history_transactions where created_at not in (select created_at from history_transactions order by created_at limit ' + one_page_limit*(page-1) + ') order by created_at limit ' + one_page_limit)"
p99
sI191
S'    a=1'
p100
ssg85
S'()'
p101
sg87
S'<module>'
p102
sa(dp103
g64
S'/home/cc5985/web2py/web2py/gluon/globals.py'
p104
sg66
(dp105
S'self'
p106
S'undefined'
p107
sS'f'
S'<function call>'
p108
ssg72
I420
sg73
(dp109
I416
S'        self.meta = Storage()      # used by web2py_ajax.html'
p110
sI417
S'        self.menu = []             # used by the default view layout'
p111
sI418
S'        self.files = []            # used by web2py_ajax.html'
p112
sI419
S'        self._vars = None'
p113
sI420
S'        self._caller = lambda f: f()'
p114
sI421
S'        self._view_environment = None'
p115
sI422
S'        self._custom_commit = None'
p116
sI423
S'        self._custom_rollback = None'
p117
sI424
S"        self.generic_patterns = ['*']"
p118
sI415
S"        self.flash = ''            # used by the default view layout"
p119
ssg85
S'(f=<function call>)'
p120
sg87
S'<lambda>'
p121
sa(dp122
g64
S'/home/cc5985/web2py/web2py/applications/app1/controllers/api.py'
p123
sg66
(dp124
S'global service'
p125
S'<gluon.tools.Service object>'
p126
ssg72
I18
sg73
(dp127
I13
S'service = Service()'
p128
sI14
S''
sI15
S''
sI16
S'def call():'
p129
sI17
S'    session.forget()'
p130
sI18
S'    return service()'
p131
sI19
S''
sI20
S''
sI21
S'@service.run'
p132
sI22
S'def add(x,y):'
p133
ssg85
S'()'
p134
sg87
g85
sa(dp135
g64
S'/home/cc5985/web2py/web2py/gluon/tools.py'
p136
sg66
(dp137
S'request.args'
p138
S"['run', 'transactions']"
p139
sS'self.serve_run'
p140
S'<bound method Service.serve_run of <gluon.tools.Service object>>'
p141
sS'self'
p142
S'<gluon.tools.Service object>'
p143
sS'request'
p144
S"<Storage {'_vars': <Storage {'id': 'GCHZDZXYLZ76...'/home/cc5985/web2py/web2py/applications/app1/'}>"
p145
ssg72
I5473
sg73
(dp146
I5472
S"        if arg0 == 'run':"
p147
sI5473
S'            return self.serve_run(request.args[1:])'
p148
sI5474
S"        elif arg0 == 'rss':"
p149
sI5475
S'            return self.serve_rss(request.args[1:])'
p150
sI5476
S"        elif arg0 == 'csv':"
p151
sI5477
S'            return self.serve_csv(request.args[1:])'
p152
sI5468
S'        request = current.request'
p153
sI5469
S'        if len(request.args) < 1:'
p154
sI5470
S'            raise HTTP(404, "Not Found")'
p155
sI5471
S'        arg0 = request.args(0)'
p156
ssg85
S'(self=<gluon.tools.Service object>)'
p157
sg87
S'__call__'
p158
sa(dp159
g64
S'/home/cc5985/web2py/web2py/gluon/tools.py'
p160
sg66
(dp161
S'request.vars'
p162
S"<Storage {'id': 'GCHZDZXYLZ76XADS7735LK3OJUFZ2TBSXAR23YXKXCXXHUEEVT5C37PY'}>"
p163
sS'args'
p164
S"['transactions']"
p165
sS'request'
p166
S"<Storage {'_vars': <Storage {'id': 'GCHZDZXYLZ76...'/home/cc5985/web2py/web2py/applications/app1/'}>"
p167
sS'builtindict'
p168
S"<type 'dict'>"
p169
ssg72
I5090
sg73
(dp170
I5088
S'        if args and args[0] in self.run_procedures:'
p171
sI5089
S'            return str(self.call_service_function(self.run_procedures[args[0]],'
p172
sI5090
S'                                                  *args[1:], **dict(request.vars)))'
p173
sI5091
S'        self.error()'
p174
sI5092
S''
sI5093
S'    def serve_csv(self, args=None):'
p175
sI5094
S'        request = current.request'
p176
sI5085
S'        request = current.request'
p177
sI5086
S'        if not args:'
p178
sI5087
S'            args = request.args'
p179
ssg85
S"(self=<gluon.tools.Service object>, args=['transactions'])"
p180
sg87
S'serve_run'
p181
sa(dp182
g64
S'/home/cc5985/web2py/web2py/gluon/tools.py'
p183
sg66
(dp184
S'a'
S'()'
p185
sS'b'
S"{'id': 'GCHZDZXYLZ76XADS7735LK3OJUFZ2TBSXAR23YXKXCXXHUEEVT5C37PY'}"
p186
sS'f'
S'<function transactions>'
p187
ssg72
I5506
sg73
(dp188
I5504
S'            return universal_caller(f, *a, **b)'
p189
sI5505
S'        else:'
p190
sI5506
S'            return f(*a, **b)'
p191
sI5507
S''
sI5508
S''
sI5509
S'def completion(callback):'
p192
sI5510
S'    """'
p193
sI5501
S'    # but the default implmentation is the simplest: just pass the arguments we got, with no checking'
p194
sI5502
S'    def call_service_function(self, f, *a, **b):'
p195
sI5503
S'        if self.check_args:'
p196
ssg85
S"(self=<gluon.tools.Service object>, f=<function transactions>, *a=(), **b={'id': 'GCHZDZXYLZ76XADS7735LK3OJUFZ2TBSXAR23YXKXCXXHUEEVT5C37PY'})"
p197
sg87
S'call_service_function'
p198
sa(dp199
g64
S'/home/cc5985/web2py/web2py/applications/app1/controllers/api.py'
p200
sg66
(dp201
S'fromer'
p202
S'None'
p203
sS'details'
p204
S"{u'asset_code': u'LINK', u'asset_issuer': u'GBGP4NT7S52HTW6EZI3RM3YKAAHEBQNBMMPQALNUJWUURQPX5AKCG3CI', u'asset_type': u'credit_alphanum4', u'limit': u'10000000.0000000', u'trustee': u'GBGP4NT7S52HTW6EZI3RM3YKAAHEBQNBMMPQALNUJWUURQPX5AKCG3CI', u'trustor': u'GCHZDZXYLZ76XADS7735LK3OJUFZ2TBSXAR23YXKXCXXHUEEVT5C37PY'}"
p205
ssg72
I137
sg73
(dp206
I132
S'            toer = None'
p207
sI133
S'            amount = None'
p208
sI134
S"            asset_code='native'"
p209
sI135
S"            asset_issuer='Fotono'"
p210
sI136
S"            if details.has_key('asset_code') and details.has_key(''):"
p211
sI137
S"                fromer=details['from']"
p212
sI138
S"                toer=details['to']"
p213
sI139
S"                amount=details['amount']"
p214
sI140
S'                try:'
p215
sI141
S"                    asset_code=details['asset_code']"
p216
ssg85
S"(id='GCHZDZXYLZ76XADS7735LK3OJUFZ2TBSXAR23YXKXCXXHUEEVT5C37PY', limit=50, page=1, asset_code='native', asset_issuer='Fotono')"
p217
sg87
S'transactions'
p218
sasS'pyver'
p219
S'Python 2.7.12: /home/cc5985/web2py/web2py/applications/app1/venv/bin/python (prefix: /home/cc5985/web2py/web2py/applications/app1/venv)'
p220
sS'session'
p221
g59
(S's\x1a\x00\x00\x00<div><table></table></div>'
tRp222
sS'etype'
p223
S"<type 'exceptions.KeyError'>"
p224
sS'date'
p225
S'Wed Aug 15 10:36:39 2018'
p226
sS'response'
p227
g59
(S's\x0f<\x00\x00<div><table><tr><td style="font-weight:bold;vertical-align:top;">body</td><td style="vertical-align:top;">:</td><td><div>&lt;cStringIO.StringO object at 0x7fda80647180&gt;</div></td></tr><tr><td style="font-weight:bold;vertical-align:top;">cookies</td><td style="vertical-align:top;">:</td><td><div><table><tr><td style="font-weight:bold;vertical-align:top;">session_id_app1</td><td style="vertical-align:top;">:</td><td><div>127.0.0.1-1ee8aeb5-7afe-4fcf-bc85-c65fcbae872d<table><tr><td style="font-weight:bold;vertical-align:top;">comment</td><td style="vertical-align:top;">:</td><td><div></div></td></tr><tr><td style="font-weight:bold;vertical-align:top;">domain</td><td style="vertical-align:top;">:</td><td><div></div></td></tr><tr><td style="font-weight:bold;vertical-align:top;">expires</td><td style="vertical-align:top;">:</td><td><div></div></td></tr><tr><td style="font-weight:bold;vertical-align:top;">httponly</td><td style="vertical-align:top;">:</td><td><div></div></td></tr><tr><td style="font-weight:bold;vertical-align:top;">max-age</td><td style="vertical-align:top;">:</td><td><div></div></td></tr><tr><td style="font-weight:bold;vertical-align:top;">path</td><td style="vertical-align:top;">:</td><td><div>/</div></td></tr><tr><td style="font-weight:bold;vertical-align:top;">secure</td><td style="vertical-align:top;">:</td><td><div></div></td></tr><tr><td style="font-weight:bold;vertical-align:top;">version</td><td style="vertical-align:top;">:</td><td><div></div></td></tr></table></div></td></tr></table></div></td></tr><tr><td style="font-weight:bold;vertical-align:top;">delimiters</td><td style="vertical-align:top;">:</td><td><div><table><tr><td><div>{{</div></td></tr><tr><td><div>}}</div></td></tr></table></div></td></tr><tr><td style="font-weight:bold;vertical-align:top;">files</td><td style="vertical-align:top;">:</td><td><div><table></table></div></td></tr><tr><td style="font-weight:bold;vertical-align:top;">flash</td><td style="vertical-align:top;">:</td><td><div></div></td></tr><tr><td style="font-weight:bold;vertical-align:top;">form_label_separator</td><td style="vertical-align:top;">:</td><td><div></div></td></tr><tr><td style="font-weight:bold;vertical-align:top;">formstyle</td><td style="vertical-align:top;">:</td><td><div>bootstrap4_inline</div></td></tr><tr><td style="font-weight:bold;vertical-align:top;">generic_patterns</td><td style="vertical-align:top;">:</td><td><div><table><tr><td><div>*</div></td></tr></table></div></td></tr><tr><td style="font-weight:bold;vertical-align:top;">google_analytics_id</td><td style="vertical-align:top;">:</td><td><div>None</div></td></tr><tr><td style="font-weight:bold;vertical-align:top;">headers</td><td style="vertical-align:top;">:</td><td><div><table><tr><td style="font-weight:bold;vertical-align:top;">Access-Control-Allow-Origin</td><td style="vertical-align:top;">:</td><td><div>*</div></td></tr><tr><td style="font-weight:bold;vertical-align:top;">X-Powered-By</td><td style="vertical-align:top;">:</td><td><div>web2py</div></td></tr></table></div></td></tr><tr><td style="font-weight:bold;vertical-align:top;">menu</td><td style="vertical-align:top;">:</td><td><div><table><tr><td><div><table><tr><td><div>Home</div></td></tr><tr><td><div>False</div></td></tr><tr><td><div>/app1/default/index</div></td></tr><tr><td><div><table></table></div></td></tr></table></div></td></tr><tr><td><div><table><tr><td><div>My Sites</div></td></tr><tr><td><div>False</div></td></tr><tr><td><div>/admin/default/site</div></td></tr></table></div></td></tr><tr><td><div><table><tr><td><div>This App</div></td></tr><tr><td><div>False</div></td></tr><tr><td><div>#</div></td></tr><tr><td><div><table><tr><td><div><table><tr><td><div>Design</div></td></tr><tr><td><div>False</div></td></tr><tr><td><div>/admin/default/design/app1</div></td></tr></table></div></td></tr><tr><td><div><table><tr><td><div>Controller</div></td></tr><tr><td><div>False</div></td></tr><tr><td><div>/admin/default/edit/app1/controllers/api.py</div></td></tr></table></div></td></tr><tr><td><div><table><tr><td><div>View</div></td></tr><tr><td><div>False</div></td></tr><tr><td><div>/admin/default/edit/app1/views/api/call.html</div></td></tr></table></div></td></tr><tr><td><div><table><tr><td><div>DB Model</div></td></tr><tr><td><div>False</div></td></tr><tr><td><div>/admin/default/edit/app1/models/db.py</div></td></tr></table></div></td></tr><tr><td><div><table><tr><td><div>Menu Model</div></td></tr><tr><td><div>False</div></td></tr><tr><td><div>/admin/default/edit/app1/models/menu.py</div></td></tr></table></div></td></tr><tr><td><div><table><tr><td><div>Config.ini</div></td></tr><tr><td><div>False</div></td></tr><tr><td><div>/admin/default/edit/app1/private/appconfig.ini</div></td></tr></table></div></td></tr><tr><td><div><table><tr><td><div>Layout</div></td></tr><tr><td><div>False</div></td></tr><tr><td><div>/admin/default/edit/app1/views/layout.html</div></td></tr></table></div></td></tr><tr><td><div><table><tr><td><div>Stylesheet</div></td></tr><tr><td><div>False</div></td></tr><tr><td><div>/admin/default/edit/app1/static/css/web2py-bootstrap3.css</div></td></tr></table></div></td></tr><tr><td><div><table><tr><td><div>Database</div></td></tr><tr><td><div>False</div></td></tr><tr><td><div>/app1/appadmin/index</div></td></tr></table></div></td></tr><tr><td><div><table><tr><td><div>Errors</div></td></tr><tr><td><div>False</div></td></tr><tr><td><div>/admin/default/errors/app1</div></td></tr></table></div></td></tr><tr><td><div><table><tr><td><div>About</div></td></tr><tr><td><div>False</div></td></tr><tr><td><div>/admin/default/about/app1</div></td></tr></table></div></td></tr></table></div></td></tr></table></div></td></tr><tr><td><div><table><tr><td><div>web2py.com</div></td></tr><tr><td><div>False</div></td></tr><tr><td><div>#</div></td></tr><tr><td><div><table><tr><td><div><table><tr><td><div>Download</div></td></tr><tr><td><div>False</div></td></tr><tr><td><div>http://www.web2py.com/examples/default/download</div></td></tr></table></div></td></tr><tr><td><div><table><tr><td><div>Support</div></td></tr><tr><td><div>False</div></td></tr><tr><td><div>http://www.web2py.com/examples/default/support</div></td></tr></table></div></td></tr><tr><td><div><table><tr><td><div>Demo</div></td></tr><tr><td><div>False</div></td></tr><tr><td><div>http://web2py.com/demo_admin</div></td></tr></table></div></td></tr><tr><td><div><table><tr><td><div>Quick Examples</div></td></tr><tr><td><div>False</div></td></tr><tr><td><div>http://web2py.com/examples/default/examples</div></td></tr></table></div></td></tr><tr><td><div><table><tr><td><div>FAQ</div></td></tr><tr><td><div>False</div></td></tr><tr><td><div>http://web2py.com/AlterEgo</div></td></tr></table></div></td></tr><tr><td><div><table><tr><td><div>Videos</div></td></tr><tr><td><div>False</div></td></tr><tr><td><div>http://www.web2py.com/examples/default/videos/</div></td></tr></table></div></td></tr><tr><td><div><table><tr><td><div>Free Applications</div></td></tr><tr><td><div>False</div></td></tr><tr><td><div>http://web2py.com/appliances</div></td></tr></table></div></td></tr><tr><td><div><table><tr><td><div>Plugins</div></td></tr><tr><td><div>False</div></td></tr><tr><td><div>http://web2py.com/plugins</div></td></tr></table></div></td></tr><tr><td><div><table><tr><td><div>Recipes</div></td></tr><tr><td><div>False</div></td></tr><tr><td><div>http://web2pyslices.com/</div></td></tr></table></div></td></tr></table></div></td></tr></table></div></td></tr><tr><td><div><table><tr><td><div>Documentation</div></td></tr><tr><td><div>False</div></td></tr><tr><td><div>#</div></td></tr><tr><td><div><table><tr><td><div><table><tr><td><div>Online book</div></td></tr><tr><td><div>False</div></td></tr><tr><td><div>http://www.web2py.com/book</div></td></tr></table></div></td></tr><tr><td><div><table><tr><td><div>Preface</div></td></tr><tr><td><div>False</div></td></tr><tr><td><div>http://www.web2py.com/book/default/chapter/00</div></td></tr></table></div></td></tr><tr><td><div><table><tr><td><div>Introduction</div></td></tr><tr><td><div>False</div></td></tr><tr><td><div>http://www.web2py.com/book/default/chapter/01</div></td></tr></table></div></td></tr><tr><td><div><table><tr><td><div>Python</div></td></tr><tr><td><div>False</div></td></tr><tr><td><div>http://www.web2py.com/book/default/chapter/02</div></td></tr></table></div></td></tr><tr><td><div><table><tr><td><div>Overview</div></td></tr><tr><td><div>False</div></td></tr><tr><td><div>http://www.web2py.com/book/default/chapter/03</div></td></tr></table></div></td></tr><tr><td><div><table><tr><td><div>The Core</div></td></tr><tr><td><div>False</div></td></tr><tr><td><div>http://www.web2py.com/book/default/chapter/04</div></td></tr></table></div></td></tr><tr><td><div><table><tr><td><div>The Views</div></td></tr><tr><td><div>False</div></td></tr><tr><td><div>http://www.web2py.com/book/default/chapter/05</div></td></tr></table></div></td></tr><tr><td><div><table><tr><td><div>Database</div></td></tr><tr><td><div>False</div></td></tr><tr><td><div>http://www.web2py.com/book/default/chapter/06</div></td></tr></table></div></td></tr><tr><td><div><table><tr><td><div>Forms and Validators</div></td></tr><tr><td><div>False</div></td></tr><tr><td><div>http://www.web2py.com/book/default/chapter/07</div></td></tr></table></div></td></tr><tr><td><div><table><tr><td><div>Email and SMS</div></td></tr><tr><td><div>False</div></td></tr><tr><td><div>http://www.web2py.com/book/default/chapter/08</div></td></tr></table></div></td></tr><tr><td><div><table><tr><td><div>Access Control</div></td></tr><tr><td><div>False</div></td></tr><tr><td><div>http://www.web2py.com/book/default/chapter/09</div></td></tr></table></div></td></tr><tr><td><div><table><tr><td><div>Services</div></td></tr><tr><td><div>False</div></td></tr><tr><td><div>http://www.web2py.com/book/default/chapter/10</div></td></tr></table></div></td></tr><tr><td><div><table><tr><td><div>Ajax Recipes</div></td></tr><tr><td><div>False</div></td></tr><tr><td><div>http://www.web2py.com/book/default/chapter/11</div></td></tr></table></div></td></tr><tr><td><div><table><tr><td><div>Components and Plugins</div></td></tr><tr><td><div>False</div></td></tr><tr><td><div>http://www.web2py.com/book/default/chapter/12</div></td></tr></table></div></td></tr><tr><td><div><table><tr><td><div>Deployment Recipes</div></td></tr><tr><td><div>False</div></td></tr><tr><td><div>http://www.web2py.com/book/default/chapter/13</div></td></tr></table></div></td></tr><tr><td><div><table><tr><td><div>Other Recipes</div></td></tr><tr><td><div>False</div></td></tr><tr><td><div>http://www.web2py.com/book/default/chapter/14</div></td></tr></table></div></td></tr><tr><td><div><table><tr><td><div>Helping web2py</div></td></tr><tr><td><div>False</div></td></tr><tr><td><div>http://www.web2py.com/book/default/chapter/15</div></td></tr></table></div></td></tr><tr><td><div><table><tr><td><div>Buy web2py\'s book</div></td></tr><tr><td><div>False</div></td></tr><tr><td><div>http://stores.lulu.com/web2py</div></td></tr></table></div></td></tr></table></div></td></tr></table></div></td></tr><tr><td><div><table><tr><td><div>Community</div></td></tr><tr><td><div>False</div></td></tr><tr><td><div>None</div></td></tr><tr><td><div><table><tr><td><div><table><tr><td><div>Groups</div></td></tr><tr><td><div>False</div></td></tr><tr><td><div>http://www.web2py.com/examples/default/usergroups</div></td></tr></table></div></td></tr><tr><td><div><table><tr><td><div>Twitter</div></td></tr><tr><td><div>False</div></td></tr><tr><td><div>http://twitter.com/web2py</div></td></tr></table></div></td></tr><tr><td><div><table><tr><td><div>Live Chat</div></td></tr><tr><td><div>False</div></td></tr><tr><td><div>http://webchat.freenode.net/?channels=web2py</div></td></tr></table></div></td></tr></table></div></td></tr></table></div></td></tr></table></div></td></tr><tr><td style="font-weight:bold;vertical-align:top;">meta</td><td style="vertical-align:top;">:</td><td><div><table><tr><td style="font-weight:bold;vertical-align:top;">author</td><td style="vertical-align:top;">:</td><td><div>Your Name &lt;you@example.com&gt;</div></td></tr><tr><td style="font-weight:bold;vertical-align:top;">description</td><td style="vertical-align:top;">:</td><td><div>a cool new app</div></td></tr><tr><td style="font-weight:bold;vertical-align:top;">generator</td><td style="vertical-align:top;">:</td><td><div>Web2py Web Framework</div></td></tr><tr><td style="font-weight:bold;vertical-align:top;">keywords</td><td style="vertical-align:top;">:</td><td><div><table><tr><td><div>web2py</div></td></tr><tr><td><div>python</div></td></tr><tr><td><div>framework</div></td></tr></table></div></td></tr></table></div></td></tr><tr><td style="font-weight:bold;vertical-align:top;">models_to_run</td><td style="vertical-align:top;">:</td><td><div><table><tr><td><div>^\\w+\\.py$</div></td></tr><tr><td><div>^api/\\w+\\.py$</div></td></tr><tr><td><div>^api/call/\\w+\\.py$</div></td></tr></table></div></td></tr><tr><td style="font-weight:bold;vertical-align:top;">postprocessing</td><td style="vertical-align:top;">:</td><td><div><table></table></div></td></tr><tr><td style="font-weight:bold;vertical-align:top;">session_client</td><td style="vertical-align:top;">:</td><td><div>127.0.0.1</div></td></tr><tr><td style="font-weight:bold;vertical-align:top;">session_cookie_compression_level</td><td style="vertical-align:top;">:</td><td><div>None</div></td></tr><tr><td style="font-weight:bold;vertical-align:top;">session_cookie_expires</td><td style="vertical-align:top;">:</td><td><div>None</div></td></tr><tr><td style="font-weight:bold;vertical-align:top;">session_data_name</td><td style="vertical-align:top;">:</td><td><div>session_data_app1</div></td></tr><tr><td style="font-weight:bold;vertical-align:top;">session_file</td><td style="vertical-align:top;">:</td><td><div>None</div></td></tr><tr><td style="font-weight:bold;vertical-align:top;">session_filename</td><td style="vertical-align:top;">:</td><td><div>/home/cc5985/web2py/web2py/applications/app1/sessions/127.0.0.1-1ee8aeb5-7afe-4fcf-bc85-c65fcbae872d</div></td></tr><tr><td style="font-weight:bold;vertical-align:top;">session_hash</td><td style="vertical-align:top;">:</td><td><div>c0762cbf4baf7f9af97c051e7fcb8083</div></td></tr><tr><td style="font-weight:bold;vertical-align:top;">session_id</td><td style="vertical-align:top;">:</td><td><div>127.0.0.1-1ee8aeb5-7afe-4fcf-bc85-c65fcbae872d</div></td></tr><tr><td style="font-weight:bold;vertical-align:top;">session_id_name</td><td style="vertical-align:top;">:</td><td><div>session_id_app1</div></td></tr><tr><td style="font-weight:bold;vertical-align:top;">session_masterapp</td><td style="vertical-align:top;">:</td><td><div>app1</div></td></tr><tr><td style="font-weight:bold;vertical-align:top;">session_new</td><td style="vertical-align:top;">:</td><td><div>True</div></td></tr><tr><td style="font-weight:bold;vertical-align:top;">session_storage_type</td><td style="vertical-align:top;">:</td><td><div>file</div></td></tr><tr><td style="font-weight:bold;vertical-align:top;">status</td><td style="vertical-align:top;">:</td><td><div>200</div></td></tr><tr><td style="font-weight:bold;vertical-align:top;">view</td><td style="vertical-align:top;">:</td><td><div>api/call.html</div></td></tr></table></div>'
tRp228
sS'locals'
p229
(dp230
S'constant'
p231
S'<applications.app1.modules.constant.Constant instance>'
p232
sS'transaction_hash'
p233
S"'2d1de443abc8f50ba78386fe3b7b60b778480f89bdc55aaeda9626dddc626a42'"
p234
sS'result'
p235
S"{'id': 'GCHZDZXYLZ76XADS7735LK3OJUFZ2TBSXAR23YXKXCXXHUEEVT5C37PY', 'transactions': []}"
p236
sS'id'
p237
S"'GCHZDZXYLZ76XADS7735LK3OJUFZ2TBSXAR23YXKXCXXHUEEVT5C37PY'"
p238
sS'cnt'
p239
S'0'
sS'rows'
p240
S"[('2d1de443abc8f50ba78386fe3b7b60b778480f89bdc55aaeda9626dddc626a42', 123117, 1, 'GCHZDZXYLZ76XADS7735LK3OJUFZ2TBSXAR23YXKXCXXHUEEVT5C37PY', 527258775191553L, 5000, 1, datetime.datetime(2018, 8, 14, 4, 54, 43, 385481), datetime.datetime(2018, 8, 14, 4, 54, 43, 385481), 528783488585728L, 'AAAAAI+R5vhef+uAcv/31atuTQudTDK4I63i6rivc9CErPot...cAclxqHcFRNtU9j0BkYr8G5tq6o94Z7IWkZYQ2Qc/pYvYVwk=', 'AAAAAAAAE4gAAAAAAAAAAQAAAAAAAAAGAAAAAAAAAAA=', 'AAAAAQAAAAAAAAABAAAAAgAAAAAAAeDtAAAAAQAAAACPkeb4...AAAEAAAABAAAAAAAAAAAAAAAAAQAAAAAAAAAAAAAAAAAAAA==', 'AAAAAgAAAAMAAd+KAAAAAAAAAACPkeb4Xn/rgHL/99Wrbk0L...AAAEAAAAAAAAAAAAAAAAAAAAAAQAAAAAAAAAAAAAAAAAAAA==', ['/HAmCsbOTH56UGiWgUx6OyDvWaVe+TF12o8IiJwByXGodwVE21T2PQGRivwbm2rqj3hnshaRlhDZBz+li9hXCQ=='], 'none', None, None, 528783488585729L, 528783488585728L, ...), ('b43db9a78980e15ec02508bac9a78d35d09ed0cb8469d8c906b7490502417046', 123173, 1, 'GCHZDZXYLZ76XADS7735LK3OJUFZ2TBSXAR23YXKXCXXHUEEVT5C37PY', 527258775191554L, 5000, 1, datetime.datetime(2018, 8, 14, 4, 59, 23, 387036), datetime.datetime(2018, 8, 14, 4, 59, 23, 387036), 529024006754304L, 'AAAAAI+R5vhef+uAcv/31atuTQudTDK4I63i6rivc9CErPot...B09ro1HRoRmqzfZpRaHrj65QpOWLm/AjdYo7eDL1qfoEw3AQ=', 'AAAAAAAAE4gAAAAAAAAAAQAAAAAAAAAGAAAAAAAAAAA=', 'AAAAAQAAAAAAAAABAAAAAgAAAAMAAeDuAAAAAQAAAACPkeb4...pSMH36BQjAABa8xB6QAAAAFrzEHpAAAAAAAEAAAAAAAAAAA==', 'AAAAAgAAAAMAAeDtAAAAAAAAAACPkeb4Xn/rgHL/99Wrbk0L...AAAIAAAABAAAAAAAAAAAAAAAAAQAAAAAAAAAAAAAAAAAAAA==', ['A/XjThQdZo3Kc6sRLLPtui7nYIlu91ovIXe0TsHT2ujUdGhGarN9mlFoeuPrlCk5Yub8CN1ijt4MvWp+gTDcBA=='], 'none', None, None, 529024006754305L, 529024006754304L, ...), ('8e89d5947645eae9e31989d0ee30ef4c9755dc1449e63e17796a4090e278363f', 123179, 1, 'GCHZDZXYLZ76XADS7735LK3OJUFZ2TBSXAR23YXKXCXXHUEEVT5C37PY', 527258775191555L, 5000, 1, datetime.datetime(2018, 8, 14, 4, 59, 53, 384556), datetime.datetime(2018, 8, 14, 4, 59, 53, 384556), 529049776558080L, 'AAAAAI+R5vhef+uAcv/31atuTQudTDK4I63i6rivc9CErPot...tACoAF0rZQ0javxcQOovj5kP50RoHeB7KnFwTd5RJYs5+EAY=', 'AAAAAAAAE4gAAAAAAAAAAQAAAAAAAAAGAAAAAAAAAAA=', 'AAAAAQAAAAAAAAABAAAAAgAAAAMAAeElAAAAAQAAAACPkeb4...pSMH36BQjAABa8xB6QAAAAFrzEHpAAAAAAAEAAAAAAAAAAA==', 'AAAAAgAAAAMAAeElAAAAAAAAAACPkeb4Xn/rgHL/99Wrbk0L...AAAMAAAABAAAAAAAAAAAAAAAAAQAAAAAAAAAAAAAAAAAAAA==', ['PGf5GObIr9Sfa9RDSK847Qnsdaed4a66pn8SuS0AKgAXStlDSNq/FxA6i+PmQ/nRGgd4HsqcXBN3lElizn4QBg=='], 'none', None, None, 529049776558081L, 529049776558080L, ...), ('15124cecc9bd400d5ae0274b008fa9c1277b72ae6d6063a454c27417e983a9f2', 123194, 1, 'GCHZDZXYLZ76XADS7735LK3OJUFZ2TBSXAR23YXKXCXXHUEEVT5C37PY', 527258775191556L, 5000, 1, datetime.datetime(2018, 8, 14, 5, 1, 8, 384466), datetime.datetime(2018, 8, 14, 5, 1, 8, 384466), 529114201067520L, 'AAAAAI+R5vhef+uAcv/31atuTQudTDK4I63i6rivc9CErPot...afQVu4wc8WY+6vWB7D1ce8R6yBfbMnH8Gn/jYMSlHFXsRSQA=', 'AAAAAAAAE4gAAAAAAAAAAQAAAAAAAAAGAAAAAAAAAAA=', 'AAAAAQAAAAAAAAABAAAAAgAAAAMAAeErAAAAAQAAAACPkeb4...pSMH36BQjAABa8xB6QAAAAFrzEHpAAAAAAAEAAAAAAAAAAA==', 'AAAAAgAAAAMAAeErAAAAAAAAAACPkeb4Xn/rgHL/99Wrbk0L...AAAQAAAABAAAAAAAAAAAAAAAAAQAAAAAAAAAAAAAAAAAAAA==', ['oJ8krGVV2SQ8rk1fctjSg0VTvo/oiC/aCEMt4pp9BW7jBzxZj7q9YHsPVx7xHrIF9sycfwaf+NgxKUcVexFJAA=='], 'none', None, None, 529114201067521L, 529114201067520L, ...), ('dc32f748a6532367efe04923c9267587a851483b87aa92553226dda911bd277f', 123216, 1, 'GCHZDZXYLZ76XADS7735LK3OJUFZ2TBSXAR23YXKXCXXHUEEVT5C37PY', 527258775191557L, 5000, 1, datetime.datetime(2018, 8, 14, 5, 2, 58, 384381), datetime.datetime(2018, 8, 14, 5, 2, 58, 384382), 529208690348032L, 'AAAAAI+R5vhef+uAcv/31atuTQudTDK4I63i6rivc9CErPot...f0ESlSLIHkWzE47qUK+HA9qNKmTQE9DWPRQoZZA5PyaxIigg=', 'AAAAAAAAE4gAAAAAAAAAAQAAAAAAAAAGAAAAAAAAAAA=', 'AAAAAQAAAAAAAAABAAAAAgAAAAMAAeE6AAAAAQAAAACPkeb4...pSMH36BQjAABa8xB6QAAAAFrzEHpAAAAAAAEAAAAAAAAAAA==', 'AAAAAgAAAAMAAeE6AAAAAAAAAACPkeb4Xn/rgHL/99Wrbk0L...AAAUAAAABAAAAAAAAAAAAAAAAAQAAAAAAAAAAAAAAAAAAAA==', ['AZYhtXhAHmwJGvIFX3bE3QOjCb8sX4leh4xSW9/QRKVIsgeRbMTjupQr4cD2o0qZNAT0NY9FChlkDk/JrEiKCA=='], 'none', None, None, 529208690348033L, 529208690348032L, ...), ('1b445f895b60917724a0538d971a925b3ce7d2a77e282b63aed937ad43e6224d', 123527, 1, 'GCHZDZXYLZ76XADS7735LK3OJUFZ2TBSXAR23YXKXCXXHUEEVT5C37PY', 527258775191558L, 445000, 89, datetime.datetime(2018, 8, 14, 5, 28, 55, 391099), datetime.datetime(2018, 8, 14, 5, 28, 55, 391099), 530544425177088L, 'AAAAAI+R5vhef+uAcv/31atuTQudTDK4I63i6rivc9CErPot...29vLpeThVyBZP58f3NasNS/en7vbG+teSsndr3cfxZ7szbgQ=', 'AAAAAAAGykgAAAAAAAAAWQAAAAAAAAABAAAAAAAAAAAAAAAB...AAAABAAAAAAAAAAAAAAABAAAAAAAAAAAAAAABAAAAAAAAAAA=', 'AAAAAQAAAAAAAABZAAAABAAAAAMAAeJOAAAAAQAAAAA9KGX8...NqUjB9+gUIwAAWvH+/zPgAABa8xB6QAAAAAABAAAAAAAAAAA=', 'AAAAAgAAAAMAAeFQAAAAAAAAAACPkeb4Xn/rgHL/99Wrbk0L...AAAYAAAABAAAAAAAAAAAAAAAAAQAAAAAAAAAAAAAAAAAAAA==', ['QBlsrnBkeb44tUNZL1uWsEytax3tP+9YFpZWfPb28ul5OFXIFk/nx/c1qw1L96fu9sb615Kyd2vdx/FnuzNuBA=='], 'none', None, None, 530544425177097L, 530544425177088L, ...), ('1b445f895b60917724a0538d971a925b3ce7d2a77e282b63aed937ad43e6224d', 123527, 1, 'GCHZDZXYLZ76XADS7735LK3OJUFZ2TBSXAR23YXKXCXXHUEEVT5C37PY', 527258775191558L, 445000, 89, datetime.datetime(2018, 8, 14, 5, 28, 55, 391099), datetime.datetime(2018, 8, 14, 5, 28, 55, 391099), 530544425177088L, 'AAAAAI+R5vhef+uAcv/31atuTQudTDK4I63i6rivc9CErPot...29vLpeThVyBZP58f3NasNS/en7vbG+teSsndr3cfxZ7szbgQ=', 'AAAAAAAGykgAAAAAAAAAWQAAAAAAAAABAAAAAAAAAAAAAAAB...AAAABAAAAAAAAAAAAAAABAAAAAAAAAAAAAAABAAAAAAAAAAA=', 'AAAAAQAAAAAAAABZAAAABAAAAAMAAeJOAAAAAQAAAAA9KGX8...NqUjB9+gUIwAAWvH+/zPgAABa8xB6QAAAAAABAAAAAAAAAAA=', 'AAAAAgAAAAMAAeFQAAAAAAAAAACPkeb4Xn/rgHL/99Wrbk0L...AAAYAAAABAAAAAAAAAAAAAAAAAQAAAAAAAAAAAAAAAAAAAA==', ['QBlsrnBkeb44tUNZL1uWsEytax3tP+9YFpZWfPb28ul5OFXIFk/nx/c1qw1L96fu9sb615Kyd2vdx/FnuzNuBA=='], 'none', None, None, 530544425177095L, 530544425177088L, ...), ('1b445f895b60917724a0538d971a925b3ce7d2a77e282b63aed937ad43e6224d', 123527, 1, 'GCHZDZXYLZ76XADS7735LK3OJUFZ2TBSXAR23YXKXCXXHUEEVT5C37PY', 527258775191558L, 445000, 89, datetime.datetime(2018, 8, 14, 5, 28, 55, 391099), datetime.datetime(2018, 8, 14, 5, 28, 55, 391099), 530544425177088L, 'AAAAAI+R5vhef+uAcv/31atuTQudTDK4I63i6rivc9CErPot...29vLpeThVyBZP58f3NasNS/en7vbG+teSsndr3cfxZ7szbgQ=', 'AAAAAAAGykgAAAAAAAAAWQAAAAAAAAABAAAAAAAAAAAAAAAB...AAAABAAAAAAAAAAAAAAABAAAAAAAAAAAAAAABAAAAAAAAAAA=', 'AAAAAQAAAAAAAABZAAAABAAAAAMAAeJOAAAAAQAAAAA9KGX8...NqUjB9+gUIwAAWvH+/zPgAABa8xB6QAAAAAABAAAAAAAAAAA=', 'AAAAAgAAAAMAAeFQAAAAAAAAAACPkeb4Xn/rgHL/99Wrbk0L...AAAYAAAABAAAAAAAAAAAAAAAAAQAAAAAAAAAAAAAAAAAAAA==', ['QBlsrnBkeb44tUNZL1uWsEytax3tP+9YFpZWfPb28ul5OFXIFk/nx/c1qw1L96fu9sb615Kyd2vdx/FnuzNuBA=='], 'none', None, None, 530544425177090L, 530544425177088L, ...), ('1b445f895b60917724a0538d971a925b3ce7d2a77e282b63aed937ad43e6224d', 123527, 1, 'GCHZDZXYLZ76XADS7735LK3OJUFZ2TBSXAR23YXKXCXXHUEEVT5C37PY', 527258775191558L, 445000, 89, datetime.datetime(2018, 8, 14, 5, 28, 55, 391099), datetime.datetime(2018, 8, 14, 5, 28, 55, 391099), 530544425177088L, 'AAAAAI+R5vhef+uAcv/31atuTQudTDK4I63i6rivc9CErPot...29vLpeThVyBZP58f3NasNS/en7vbG+teSsndr3cfxZ7szbgQ=', 'AAAAAAAGykgAAAAAAAAAWQAAAAAAAAABAAAAAAAAAAAAAAAB...AAAABAAAAAAAAAAAAAAABAAAAAAAAAAAAAAABAAAAAAAAAAA=', 'AAAAAQAAAAAAAABZAAAABAAAAAMAAeJOAAAAAQAAAAA9KGX8...NqUjB9+gUIwAAWvH+/zPgAABa8xB6QAAAAAABAAAAAAAAAAA=', 'AAAAAgAAAAMAAeFQAAAAAAAAAACPkeb4Xn/rgHL/99Wrbk0L...AAAYAAAABAAAAAAAAAAAAAAAAAQAAAAAAAAAAAAAAAAAAAA==', ['QBlsrnBkeb44tUNZL1uWsEytax3tP+9YFpZWfPb28ul5OFXIFk/nx/c1qw1L96fu9sb615Kyd2vdx/FnuzNuBA=='], 'none', None, None, 530544425177094L, 530544425177088L, ...), ('1b445f895b60917724a0538d971a925b3ce7d2a77e282b63aed937ad43e6224d', 123527, 1, 'GCHZDZXYLZ76XADS7735LK3OJUFZ2TBSXAR23YXKXCXXHUEEVT5C37PY', 527258775191558L, 445000, 89, datetime.datetime(2018, 8, 14, 5, 28, 55, 391099), datetime.datetime(2018, 8, 14, 5, 28, 55, 391099), 530544425177088L, 'AAAAAI+R5vhef+uAcv/31atuTQudTDK4I63i6rivc9CErPot...29vLpeThVyBZP58f3NasNS/en7vbG+teSsndr3cfxZ7szbgQ=', 'AAAAAAAGykgAAAAAAAAAWQAAAAAAAAABAAAAAAAAAAAAAAAB...AAAABAAAAAAAAAAAAAAABAAAAAAAAAAAAAAABAAAAAAAAAAA=', 'AAAAAQAAAAAAAABZAAAABAAAAAMAAeJOAAAAAQAAAAA9KGX8...NqUjB9+gUIwAAWvH+/zPgAABa8xB6QAAAAAABAAAAAAAAAAA=', 'AAAAAgAAAAMAAeFQAAAAAAAAAACPkeb4Xn/rgHL/99Wrbk0L...AAAYAAAABAAAAAAAAAAAAAAAAAQAAAAAAAAAAAAAAAAAAAA==', ['QBlsrnBkeb44tUNZL1uWsEytax3tP+9YFpZWfPb28ul5OFXIFk/nx/c1qw1L96fu9sb615Kyd2vdx/FnuzNuBA=='], 'none', None, None, 530544425177103L, 530544425177088L, ...), ('1b445f895b60917724a0538d971a925b3ce7d2a77e282b63aed937ad43e6224d', 123527, 1, 'GCHZDZXYLZ76XADS7735LK3OJUFZ2TBSXAR23YXKXCXXHUEEVT5C37PY', 527258775191558L, 445000, 89, datetime.datetime(2018, 8, 14, 5, 28, 55, 391099), datetime.datetime(2018, 8, 14, 5, 28, 55, 391099), 530544425177088L, 'AAAAAI+R5vhef+uAcv/31atuTQudTDK4I63i6rivc9CErPot...29vLpeThVyBZP58f3NasNS/en7vbG+teSsndr3cfxZ7szbgQ=', 'AAAAAAAGykgAAAAAAAAAWQAAAAAAAAABAAAAAAAAAAAAAAAB...AAAABAAAAAAAAAAAAAAABAAAAAAAAAAAAAAABAAAAAAAAAAA=', 'AAAAAQAAAAAAAABZAAAABAAAAAMAAeJOAAAAAQAAAAA9KGX8...NqUjB9+gUIwAAWvH+/zPgAABa8xB6QAAAAAABAAAAAAAAAAA=', 'AAAAAgAAAAMAAeFQAAAAAAAAAACPkeb4Xn/rgHL/99Wrbk0L...AAAYAAAABAAAAAAAAAAAAAAAAAQAAAAAAAAAAAAAAAAAAAA==', ['QBlsrnBkeb44tUNZL1uWsEytax3tP+9YFpZWfPb28ul5OFXIFk/nx/c1qw1L96fu9sb615Kyd2vdx/FnuzNuBA=='], 'none', None, None, 530544425177107L, 530544425177088L, ...), ('1b445f895b60917724a0538d971a925b3ce7d2a77e282b63aed937ad43e6224d', 123527, 1, 'GCHZDZXYLZ76XADS7735LK3OJUFZ2TBSXAR23YXKXCXXHUEEVT5C37PY', 527258775191558L, 445000, 89, datetime.datetime(2018, 8, 14, 5, 28, 55, 391099), datetime.datetime(2018, 8, 14, 5, 28, 55, 391099), 530544425177088L, 'AAAAAI+R5vhef+uAcv/31atuTQudTDK4I63i6rivc9CErPot...29vLpeThVyBZP58f3NasNS/en7vbG+teSsndr3cfxZ7szbgQ=', 'AAAAAAAGykgAAAAAAAAAWQAAAAAAAAABAAAAAAAAAAAAAAAB...AAAABAAAAAAAAAAAAAAABAAAAAAAAAAAAAAABAAAAAAAAAAA=', 'AAAAAQAAAAAAAABZAAAABAAAAAMAAeJOAAAAAQAAAAA9KGX8...NqUjB9+gUIwAAWvH+/zPgAABa8xB6QAAAAAABAAAAAAAAAAA=', 'AAAAAgAAAAMAAeFQAAAAAAAAAACPkeb4Xn/rgHL/99Wrbk0L...AAAYAAAABAAAAAAAAAAAAAAAAAQAAAAAAAAAAAAAAAAAAAA==', ['QBlsrnBkeb44tUNZL1uWsEytax3tP+9YFpZWfPb28ul5OFXIFk/nx/c1qw1L96fu9sb615Kyd2vdx/FnuzNuBA=='], 'none', None, None, 530544425177096L, 530544425177088L, ...), ('1b445f895b60917724a0538d971a925b3ce7d2a77e282b63aed937ad43e6224d', 123527, 1, 'GCHZDZXYLZ76XADS7735LK3OJUFZ2TBSXAR23YXKXCXXHUEEVT5C37PY', 527258775191558L, 445000, 89, datetime.datetime(2018, 8, 14, 5, 28, 55, 391099), datetime.datetime(2018, 8, 14, 5, 28, 55, 391099), 530544425177088L, 'AAAAAI+R5vhef+uAcv/31atuTQudTDK4I63i6rivc9CErPot...29vLpeThVyBZP58f3NasNS/en7vbG+teSsndr3cfxZ7szbgQ=', 'AAAAAAAGykgAAAAAAAAAWQAAAAAAAAABAAAAAAAAAAAAAAAB...AAAABAAAAAAAAAAAAAAABAAAAAAAAAAAAAAABAAAAAAAAAAA=', 'AAAAAQAAAAAAAABZAAAABAAAAAMAAeJOAAAAAQAAAAA9KGX8...NqUjB9+gUIwAAWvH+/zPgAABa8xB6QAAAAAABAAAAAAAAAAA=', 'AAAAAgAAAAMAAeFQAAAAAAAAAACPkeb4Xn/rgHL/99Wrbk0L...AAAYAAAABAAAAAAAAAAAAAAAAAQAAAAAAAAAAAAAAAAAAAA==', ['QBlsrnBkeb44tUNZL1uWsEytax3tP+9YFpZWfPb28ul5OFXIFk/nx/c1qw1L96fu9sb615Kyd2vdx/FnuzNuBA=='], 'none', None, None, 530544425177111L, 530544425177088L, ...), ('1b445f895b60917724a0538d971a925b3ce7d2a77e282b63aed937ad43e6224d', 123527, 1, 'GCHZDZXYLZ76XADS7735LK3OJUFZ2TBSXAR23YXKXCXXHUEEVT5C37PY', 527258775191558L, 445000, 89, datetime.datetime(2018, 8, 14, 5, 28, 55, 391099), datetime.datetime(2018, 8, 14, 5, 28, 55, 391099), 530544425177088L, 'AAAAAI+R5vhef+uAcv/31atuTQudTDK4I63i6rivc9CErPot...29vLpeThVyBZP58f3NasNS/en7vbG+teSsndr3cfxZ7szbgQ=', 'AAAAAAAGykgAAAAAAAAAWQAAAAAAAAABAAAAAAAAAAAAAAAB...AAAABAAAAAAAAAAAAAAABAAAAAAAAAAAAAAABAAAAAAAAAAA=', 'AAAAAQAAAAAAAABZAAAABAAAAAMAAeJOAAAAAQAAAAA9KGX8...NqUjB9+gUIwAAWvH+/zPgAABa8xB6QAAAAAABAAAAAAAAAAA=', 'AAAAAgAAAAMAAeFQAAAAAAAAAACPkeb4Xn/rgHL/99Wrbk0L...AAAYAAAABAAAAAAAAAAAAAAAAAQAAAAAAAAAAAAAAAAAAAA==', ['QBlsrnBkeb44tUNZL1uWsEytax3tP+9YFpZWfPb28ul5OFXIFk/nx/c1qw1L96fu9sb615Kyd2vdx/FnuzNuBA=='], 'none', None, None, 530544425177098L, 530544425177088L, ...), ('1b445f895b60917724a0538d971a925b3ce7d2a77e282b63aed937ad43e6224d', 123527, 1, 'GCHZDZXYLZ76XADS7735LK3OJUFZ2TBSXAR23YXKXCXXHUEEVT5C37PY', 527258775191558L, 445000, 89, datetime.datetime(2018, 8, 14, 5, 28, 55, 391099), datetime.datetime(2018, 8, 14, 5, 28, 55, 391099), 530544425177088L, 'AAAAAI+R5vhef+uAcv/31atuTQudTDK4I63i6rivc9CErPot...29vLpeThVyBZP58f3NasNS/en7vbG+teSsndr3cfxZ7szbgQ=', 'AAAAAAAGykgAAAAAAAAAWQAAAAAAAAABAAAAAAAAAAAAAAAB...AAAABAAAAAAAAAAAAAAABAAAAAAAAAAAAAAABAAAAAAAAAAA=', 'AAAAAQAAAAAAAABZAAAABAAAAAMAAeJOAAAAAQAAAAA9KGX8...NqUjB9+gUIwAAWvH+/zPgAABa8xB6QAAAAAABAAAAAAAAAAA=', 'AAAAAgAAAAMAAeFQAAAAAAAAAACPkeb4Xn/rgHL/99Wrbk0L...AAAYAAAABAAAAAAAAAAAAAAAAAQAAAAAAAAAAAAAAAAAAAA==', ['QBlsrnBkeb44tUNZL1uWsEytax3tP+9YFpZWfPb28ul5OFXIFk/nx/c1qw1L96fu9sb615Kyd2vdx/FnuzNuBA=='], 'none', None, None, 530544425177093L, 530544425177088L, ...), ('1b445f895b60917724a0538d971a925b3ce7d2a77e282b63aed937ad43e6224d', 123527, 1, 'GCHZDZXYLZ76XADS7735LK3OJUFZ2TBSXAR23YXKXCXXHUEEVT5C37PY', 527258775191558L, 445000, 89, datetime.datetime(2018, 8, 14, 5, 28, 55, 391099), datetime.datetime(2018, 8, 14, 5, 28, 55, 391099), 530544425177088L, 'AAAAAI+R5vhef+uAcv/31atuTQudTDK4I63i6rivc9CErPot...29vLpeThVyBZP58f3NasNS/en7vbG+teSsndr3cfxZ7szbgQ=', 'AAAAAAAGykgAAAAAAAAAWQAAAAAAAAABAAAAAAAAAAAAAAAB...AAAABAAAAAAAAAAAAAAABAAAAAAAAAAAAAAABAAAAAAAAAAA=', 'AAAAAQAAAAAAAABZAAAABAAAAAMAAeJOAAAAAQAAAAA9KGX8...NqUjB9+gUIwAAWvH+/zPgAABa8xB6QAAAAAABAAAAAAAAAAA=', 'AAAAAgAAAAMAAeFQAAAAAAAAAACPkeb4Xn/rgHL/99Wrbk0L...AAAYAAAABAAAAAAAAAAAAAAAAAQAAAAAAAAAAAAAAAAAAAA==', ['QBlsrnBkeb44tUNZL1uWsEytax3tP+9YFpZWfPb28ul5OFXIFk/nx/c1qw1L96fu9sb615Kyd2vdx/FnuzNuBA=='], 'none', None, None, 530544425177102L, 530544425177088L, ...), ('1b445f895b60917724a0538d971a925b3ce7d2a77e282b63aed937ad43e6224d', 123527, 1, 'GCHZDZXYLZ76XADS7735LK3OJUFZ2TBSXAR23YXKXCXXHUEEVT5C37PY', 527258775191558L, 445000, 89, datetime.datetime(2018, 8, 14, 5, 28, 55, 391099), datetime.datetime(2018, 8, 14, 5, 28, 55, 391099), 530544425177088L, 'AAAAAI+R5vhef+uAcv/31atuTQudTDK4I63i6rivc9CErPot...29vLpeThVyBZP58f3NasNS/en7vbG+teSsndr3cfxZ7szbgQ=', 'AAAAAAAGykgAAAAAAAAAWQAAAAAAAAABAAAAAAAAAAAAAAAB...AAAABAAAAAAAAAAAAAAABAAAAAAAAAAAAAAABAAAAAAAAAAA=', 'AAAAAQAAAAAAAABZAAAABAAAAAMAAeJOAAAAAQAAAAA9KGX8...NqUjB9+gUIwAAWvH+/zPgAABa8xB6QAAAAAABAAAAAAAAAAA=', 'AAAAAgAAAAMAAeFQAAAAAAAAAACPkeb4Xn/rgHL/99Wrbk0L...AAAYAAAABAAAAAAAAAAAAAAAAAQAAAAAAAAAAAAAAAAAAAA==', ['QBlsrnBkeb44tUNZL1uWsEytax3tP+9YFpZWfPb28ul5OFXIFk/nx/c1qw1L96fu9sb615Kyd2vdx/FnuzNuBA=='], 'none', None, None, 530544425177119L, 530544425177088L, ...), ('1b445f895b60917724a0538d971a925b3ce7d2a77e282b63aed937ad43e6224d', 123527, 1, 'GCHZDZXYLZ76XADS7735LK3OJUFZ2TBSXAR23YXKXCXXHUEEVT5C37PY', 527258775191558L, 445000, 89, datetime.datetime(2018, 8, 14, 5, 28, 55, 391099), datetime.datetime(2018, 8, 14, 5, 28, 55, 391099), 530544425177088L, 'AAAAAI+R5vhef+uAcv/31atuTQudTDK4I63i6rivc9CErPot...29vLpeThVyBZP58f3NasNS/en7vbG+teSsndr3cfxZ7szbgQ=', 'AAAAAAAGykgAAAAAAAAAWQAAAAAAAAABAAAAAAAAAAAAAAAB...AAAABAAAAAAAAAAAAAAABAAAAAAAAAAAAAAABAAAAAAAAAAA=', 'AAAAAQAAAAAAAABZAAAABAAAAAMAAeJOAAAAAQAAAAA9KGX8...NqUjB9+gUIwAAWvH+/zPgAABa8xB6QAAAAAABAAAAAAAAAAA=', 'AAAAAgAAAAMAAeFQAAAAAAAAAACPkeb4Xn/rgHL/99Wrbk0L...AAAYAAAABAAAAAAAAAAAAAAAAAQAAAAAAAAAAAAAAAAAAAA==', ['QBlsrnBkeb44tUNZL1uWsEytax3tP+9YFpZWfPb28ul5OFXIFk/nx/c1qw1L96fu9sb615Kyd2vdx/FnuzNuBA=='], 'none', None, None, 530544425177101L, 530544425177088L, ...), ('1b445f895b60917724a0538d971a925b3ce7d2a77e282b63aed937ad43e6224d', 123527, 1, 'GCHZDZXYLZ76XADS7735LK3OJUFZ2TBSXAR23YXKXCXXHUEEVT5C37PY', 527258775191558L, 445000, 89, datetime.datetime(2018, 8, 14, 5, 28, 55, 391099), datetime.datetime(2018, 8, 14, 5, 28, 55, 391099), 530544425177088L, 'AAAAAI+R5vhef+uAcv/31atuTQudTDK4I63i6rivc9CErPot...29vLpeThVyBZP58f3NasNS/en7vbG+teSsndr3cfxZ7szbgQ=', 'AAAAAAAGykgAAAAAAAAAWQAAAAAAAAABAAAAAAAAAAAAAAAB...AAAABAAAAAAAAAAAAAAABAAAAAAAAAAAAAAABAAAAAAAAAAA=', 'AAAAAQAAAAAAAABZAAAABAAAAAMAAeJOAAAAAQAAAAA9KGX8...NqUjB9+gUIwAAWvH+/zPgAABa8xB6QAAAAAABAAAAAAAAAAA=', 'AAAAAgAAAAMAAeFQAAAAAAAAAACPkeb4Xn/rgHL/99Wrbk0L...AAAYAAAABAAAAAAAAAAAAAAAAAQAAAAAAAAAAAAAAAAAAAA==', ['QBlsrnBkeb44tUNZL1uWsEytax3tP+9YFpZWfPb28ul5OFXIFk/nx/c1qw1L96fu9sb615Kyd2vdx/FnuzNuBA=='], 'none', None, None, 530544425177123L, 530544425177088L, ...), ('1b445f895b60917724a0538d971a925b3ce7d2a77e282b63aed937ad43e6224d', 123527, 1, 'GCHZDZXYLZ76XADS7735LK3OJUFZ2TBSXAR23YXKXCXXHUEEVT5C37PY', 527258775191558L, 445000, 89, datetime.datetime(2018, 8, 14, 5, 28, 55, 391099), datetime.datetime(2018, 8, 14, 5, 28, 55, 391099), 530544425177088L, 'AAAAAI+R5vhef+uAcv/31atuTQudTDK4I63i6rivc9CErPot...29vLpeThVyBZP58f3NasNS/en7vbG+teSsndr3cfxZ7szbgQ=', 'AAAAAAAGykgAAAAAAAAAWQAAAAAAAAABAAAAAAAAAAAAAAAB...AAAABAAAAAAAAAAAAAAABAAAAAAAAAAAAAAABAAAAAAAAAAA=', 'AAAAAQAAAAAAAABZAAAABAAAAAMAAeJOAAAAAQAAAAA9KGX8...NqUjB9+gUIwAAWvH+/zPgAABa8xB6QAAAAAABAAAAAAAAAAA=', 'AAAAAgAAAAMAAeFQAAAAAAAAAACPkeb4Xn/rgHL/99Wrbk0L...AAAYAAAABAAAAAAAAAAAAAAAAAQAAAAAAAAAAAAAAAAAAAA==', ['QBlsrnBkeb44tUNZL1uWsEytax3tP+9YFpZWfPb28ul5OFXIFk/nx/c1qw1L96fu9sb615Kyd2vdx/FnuzNuBA=='], 'none', None, None, 530544425177104L, 530544425177088L, ...), ...]"
p241
sS'ledger'
p242
S'123117'
p243
sS'asset_code'
p244
S"'native'"
p245
sS'my_psycopg'
p246
S'<applications.app1.modules.pg_test.PsycoPG instance>'
p247
sS'details'
p248
S"{u'asset_code': u'LINK', u'asset_issuer': u'GBGP4NT7S52HTW6EZI3RM3YKAAHEBQNBMMPQALNUJWUURQPX5AKCG3CI', u'asset_type': u'credit_alphanum4', u'limit': u'10000000.0000000', u'trustee': u'GBGP4NT7S52HTW6EZI3RM3YKAAHEBQNBMMPQALNUJWUURQPX5AKCG3CI', u'trustor': u'GCHZDZXYLZ76XADS7735LK3OJUFZ2TBSXAR23YXKXCXXHUEEVT5C37PY'}"
p249
sS'fromer'
p250
S'None'
p251
sS'transaction_id'
p252
S'528783488585729L'
p253
sS'toer'
p254
S'None'
p255
sS'memo'
p256
S'None'
p257
sS'BASE_URL'
p258
S"'test'"
p259
sS'validity'
p260
S'True'
p261
sS'asset_issuer'
p262
S"'Fotono'"
p263
sS'sql'
p264
S"'select * from history_transactions inner join hi...ory_transactions.created_at ASC limit 50 offset 0'"
p265
sS'memo_type'
p266
S'None'
p267
sS'created_at'
p268
S"'2018-08-14T04:54:43'"
p269
sS't0'
p270
S'1534299782.621019'
p271
sS'record'
p272
S"('2d1de443abc8f50ba78386fe3b7b60b778480f89bdc55aaeda9626dddc626a42', 123117, 1, 'GCHZDZXYLZ76XADS7735LK3OJUFZ2TBSXAR23YXKXCXXHUEEVT5C37PY', 527258775191553L, 5000, 1, datetime.datetime(2018, 8, 14, 4, 54, 43, 385481), datetime.datetime(2018, 8, 14, 4, 54, 43, 385481), 528783488585728L, 'AAAAAI+R5vhef+uAcv/31atuTQudTDK4I63i6rivc9CErPot...cAclxqHcFRNtU9j0BkYr8G5tq6o94Z7IWkZYQ2Qc/pYvYVwk=', 'AAAAAAAAE4gAAAAAAAAAAQAAAAAAAAAGAAAAAAAAAAA=', 'AAAAAQAAAAAAAAABAAAAAgAAAAAAAeDtAAAAAQAAAACPkeb4...AAAEAAAABAAAAAAAAAAAAAAAAAQAAAAAAAAAAAAAAAAAAAA==', 'AAAAAgAAAAMAAd+KAAAAAAAAAACPkeb4Xn/rgHL/99Wrbk0L...AAAEAAAAAAAAAAAAAAAAAAAAAAQAAAAAAAAAAAAAAAAAAAA==', ['/HAmCsbOTH56UGiWgUx6OyDvWaVe+TF12o8IiJwByXGodwVE21T2PQGRivwbm2rqj3hnshaRlhDZBz+li9hXCQ=='], 'none', None, None, 528783488585729L, 528783488585728L, ...)"
p273
sS'amount'
p274
S'None'
p275
sS'limit'
p276
S'50'
p277
sS't'
S'1.3858380317687988'
p278
sS'page'
p279
S'1'
sssS'traceback'
p280
S'Traceback (most recent call last):\n  File "/home/cc5985/web2py/web2py/gluon/restricted.py", line 219, in restricted\n    exec(ccode, environment)\n  File "/home/cc5985/web2py/web2py/applications/app1/controllers/api.py", line 195, in <module>\n  File "/home/cc5985/web2py/web2py/gluon/globals.py", line 420, in <lambda>\n    self._caller = lambda f: f()\n  File "/home/cc5985/web2py/web2py/applications/app1/controllers/api.py", line 18, in call\n    return service()\n  File "/home/cc5985/web2py/web2py/gluon/tools.py", line 5473, in __call__\n    return self.serve_run(request.args[1:])\n  File "/home/cc5985/web2py/web2py/gluon/tools.py", line 5090, in serve_run\n    *args[1:], **dict(request.vars)))\n  File "/home/cc5985/web2py/web2py/gluon/tools.py", line 5506, in call_service_function\n    return f(*a, **b)\n  File "/home/cc5985/web2py/web2py/applications/app1/controllers/api.py", line 137, in transactions\n    fromer=details[\'from\']\nKeyError: \'from\'\n'
p281
s.